

Microchip Technology PIC LITE Macro Assembler V1.45 build -152302408 
                                                                                               Wed Sep 19 15:32:40 2018

Microchip Technology Omniscient Code Generator v1.45 (Free mode) build 201711160504
     1                           	processor	16F1526
     2                           	opt	pw 120
     3                           	opt	lm
     4                           	psect	idataCOMMON,global,class=CODE,delta=2
     5                           	psect	idataBANK0,global,class=CODE,delta=2
     6                           	psect	idataBANK1,global,class=CODE,delta=2
     7                           	psect	idataBANK2,global,class=CODE,delta=2
     8                           	psect	cinit,global,class=CODE,merge=1,delta=2
     9                           	psect	bssCOMMON,global,class=COMMON,space=1,delta=1
    10                           	psect	dataCOMMON,global,class=COMMON,space=1,delta=1
    11                           	psect	bssBANK0,global,class=BANK0,space=1,delta=1
    12                           	psect	dataBANK0,global,class=BANK0,space=1,delta=1
    13                           	psect	dataBANK1,global,class=BANK1,space=1,delta=1
    14                           	psect	dataBANK2,global,class=BANK2,space=1,delta=1
    15                           	psect	inittext,global,class=CODE,delta=2
    16                           	psect	clrtext,global,class=CODE,delta=2
    17                           	psect	cstackCOMMON,global,class=COMMON,space=1,delta=1
    18                           	psect	cstackBANK0,global,class=BANK0,space=1,delta=1
    19                           	psect	maintext,global,class=CODE,merge=1,split=1,delta=2
    20                           	psect	text1,local,class=CODE,merge=1,delta=2
    21                           	psect	text2,local,class=CODE,merge=1,delta=2
    22                           	psect	text3,local,class=CODE,merge=1,delta=2
    23                           	psect	swtext1,local,class=CONST,delta=2
    24                           	psect	text4,local,class=CODE,merge=1,delta=2
    25                           	psect	text5,local,class=CODE,merge=1,delta=2,group=1
    26                           	psect	text6,local,class=CODE,merge=1,delta=2,group=1
    27                           	psect	text7,local,class=CODE,merge=1,delta=2,group=1
    28                           	psect	text8,local,class=CODE,merge=1,delta=2
    29                           	psect	text9,local,class=CODE,merge=1,delta=2
    30                           	psect	text10,local,class=CODE,merge=1,delta=2
    31                           	psect	text11,local,class=CODE,merge=1,delta=2
    32                           	psect	text12,local,class=CODE,merge=1,delta=2
    33                           	psect	intentry,global,class=CODE,delta=2
    34                           	psect	text14,local,class=CODE,merge=1,delta=2
    35                           	dabs	1,0x7E,2
    36  0000                     
    37                           ; Version 1.45
    38                           ; Generated 16/11/2017 GMT
    39                           ; 
    40                           ; Copyright © 2017, Microchip Technology Inc. and its subsidiaries ("Microchip")
    41                           ; All rights reserved.
    42                           ; 
    43                           ; This software is developed by Microchip Technology Inc. and its subsidiaries ("Microch
      +                          ip").
    44                           ; 
    45                           ; Redistribution and use in source and binary forms, with or without modification, are
    46                           ; permitted provided that the following conditions are met:
    47                           ; 
    48                           ;     1. Redistributions of source code must retain the above copyright notice, this lis
      +                          t of
    49                           ;        conditions and the following disclaimer.
    50                           ; 
    51                           ;     2. Redistributions in binary form must reproduce the above copyright notice, this 
      +                          list
    52                           ;        of conditions and the following disclaimer in the documentation and/or other
    53                           ;        materials provided with the distribution.
    54                           ; 
    55                           ;     3. Microchip's name may not be used to endorse or promote products derived from th
      +                          is
    56                           ;        software without specific prior written permission.
    57                           ; 
    58                           ; THIS SOFTWARE IS PROVIDED BY MICROCHIP "AS IS" AND ANY EXPRESS OR IMPLIED WARRANTIES,
    59                           ; INCLUDING, BUT NOT LIMITED TO, THE IMPLIED WARRANTIES OF MERCHANTABILITY AND FITNESS F
      +                          OR
    60                           ; PURPOSE ARE DISCLAIMED.  IN NO EVENT SHALL MICROCHIP BE LIABLE FOR ANY DIRECT, INDIREC
      +                          T,
    61                           ; INCIDENTAL, SPECIAL, EXEMPLARY, OR CONSEQUENTIAL DAMAGES (INCLUDING BUT NOT LIMITED TO
    62                           ; PROCUREMENT OF SUBSTITUTE GOODS OR SERVICES; LOSS OF USE, DATA OR PROFITS; OR BUSINESS
    63                           ; INTERRUPTION) HOWSOEVER CAUSED AND ON ANY THEORY OF LIABILITY, WHETHER IN CONTRACT, ST
      +                          RICT
    64                           ; LIABILITY, OR TORT (INCLUDING NEGLIGENCE OR OTHERWISE) ARISING IN ANY WAY OUT OF THE U
      +                          SE OF
    65                           ; THIS SOFTWARE, EVEN IF ADVISED OF THE POSSIBILITY OF SUCH DAMAGE.
    66                           ; 
    67                           ; 
    68                           ; Code-generator required, PIC16F1526 Definitions
    69                           ; 
    70                           ; SFR Addresses
    71  0000                     	;# 
    72  0001                     	;# 
    73  0002                     	;# 
    74  0003                     	;# 
    75  0004                     	;# 
    76  0005                     	;# 
    77  0006                     	;# 
    78  0007                     	;# 
    79  0008                     	;# 
    80  0009                     	;# 
    81  000A                     	;# 
    82  000B                     	;# 
    83  000C                     	;# 
    84  000D                     	;# 
    85  000E                     	;# 
    86  000F                     	;# 
    87  0010                     	;# 
    88  0011                     	;# 
    89  0012                     	;# 
    90  0013                     	;# 
    91  0014                     	;# 
    92  0015                     	;# 
    93  0016                     	;# 
    94  0016                     	;# 
    95  0017                     	;# 
    96  0018                     	;# 
    97  0019                     	;# 
    98  001A                     	;# 
    99  001B                     	;# 
   100  001C                     	;# 
   101  008C                     	;# 
   102  008D                     	;# 
   103  008E                     	;# 
   104  008F                     	;# 
   105  0090                     	;# 
   106  0091                     	;# 
   107  0092                     	;# 
   108  0093                     	;# 
   109  0094                     	;# 
   110  0095                     	;# 
   111  0096                     	;# 
   112  0097                     	;# 
   113  0099                     	;# 
   114  009A                     	;# 
   115  009B                     	;# 
   116  009B                     	;# 
   117  009C                     	;# 
   118  009D                     	;# 
   119  009E                     	;# 
   120  010C                     	;# 
   121  010D                     	;# 
   122  010E                     	;# 
   123  010F                     	;# 
   124  0110                     	;# 
   125  0116                     	;# 
   126  0117                     	;# 
   127  011D                     	;# 
   128  018C                     	;# 
   129  018D                     	;# 
   130  018F                     	;# 
   131  0190                     	;# 
   132  0191                     	;# 
   133  0191                     	;# 
   134  0192                     	;# 
   135  0193                     	;# 
   136  0193                     	;# 
   137  0194                     	;# 
   138  0195                     	;# 
   139  0196                     	;# 
   140  0197                     	;# 
   141  0199                     	;# 
   142  0199                     	;# 
   143  0199                     	;# 
   144  019A                     	;# 
   145  019A                     	;# 
   146  019A                     	;# 
   147  019B                     	;# 
   148  019B                     	;# 
   149  019B                     	;# 
   150  019B                     	;# 
   151  019B                     	;# 
   152  019C                     	;# 
   153  019C                     	;# 
   154  019C                     	;# 
   155  019D                     	;# 
   156  019D                     	;# 
   157  019D                     	;# 
   158  019E                     	;# 
   159  019E                     	;# 
   160  019E                     	;# 
   161  019F                     	;# 
   162  019F                     	;# 
   163  019F                     	;# 
   164  020D                     	;# 
   165  020F                     	;# 
   166  0210                     	;# 
   167  0211                     	;# 
   168  0211                     	;# 
   169  0212                     	;# 
   170  0212                     	;# 
   171  0213                     	;# 
   172  0213                     	;# 
   173  0214                     	;# 
   174  0214                     	;# 
   175  0215                     	;# 
   176  0215                     	;# 
   177  0215                     	;# 
   178  0216                     	;# 
   179  0216                     	;# 
   180  0217                     	;# 
   181  0217                     	;# 
   182  0219                     	;# 
   183  021A                     	;# 
   184  021B                     	;# 
   185  021C                     	;# 
   186  021D                     	;# 
   187  021E                     	;# 
   188  021F                     	;# 
   189  028C                     	;# 
   190  028D                     	;# 
   191  0291                     	;# 
   192  0291                     	;# 
   193  0292                     	;# 
   194  0293                     	;# 
   195  0298                     	;# 
   196  0298                     	;# 
   197  0299                     	;# 
   198  029A                     	;# 
   199  029D                     	;# 
   200  029E                     	;# 
   201  029F                     	;# 
   202  030C                     	;# 
   203  030D                     	;# 
   204  0311                     	;# 
   205  0311                     	;# 
   206  0312                     	;# 
   207  0313                     	;# 
   208  0318                     	;# 
   209  0318                     	;# 
   210  0319                     	;# 
   211  031A                     	;# 
   212  031C                     	;# 
   213  031C                     	;# 
   214  031D                     	;# 
   215  031E                     	;# 
   216  038C                     	;# 
   217  038D                     	;# 
   218  0394                     	;# 
   219  0395                     	;# 
   220  0396                     	;# 
   221  040C                     	;# 
   222  040D                     	;# 
   223  0411                     	;# 
   224  0411                     	;# 
   225  0412                     	;# 
   226  0413                     	;# 
   227  0414                     	;# 
   228  0415                     	;# 
   229  0416                     	;# 
   230  0417                     	;# 
   231  0418                     	;# 
   232  0418                     	;# 
   233  0419                     	;# 
   234  041A                     	;# 
   235  041B                     	;# 
   236  041C                     	;# 
   237  041D                     	;# 
   238  041E                     	;# 
   239  048D                     	;# 
   240  0491                     	;# 
   241  0491                     	;# 
   242  0492                     	;# 
   243  0492                     	;# 
   244  0493                     	;# 
   245  0493                     	;# 
   246  0493                     	;# 
   247  0494                     	;# 
   248  0494                     	;# 
   249  0495                     	;# 
   250  0495                     	;# 
   251  0496                     	;# 
   252  0496                     	;# 
   253  0497                     	;# 
   254  0497                     	;# 
   255  0595                     	;# 
   256  0596                     	;# 
   257  0597                     	;# 
   258  059C                     	;# 
   259  059D                     	;# 
   260  059E                     	;# 
   261  0611                     	;# 
   262  0611                     	;# 
   263  0612                     	;# 
   264  0613                     	;# 
   265  0614                     	;# 
   266  0614                     	;# 
   267  0615                     	;# 
   268  0616                     	;# 
   269  0617                     	;# 
   270  0617                     	;# 
   271  0618                     	;# 
   272  0619                     	;# 
   273  061A                     	;# 
   274  061A                     	;# 
   275  061B                     	;# 
   276  061C                     	;# 
   277  061D                     	;# 
   278  061D                     	;# 
   279  061E                     	;# 
   280  061F                     	;# 
   281  0FE4                     	;# 
   282  0FE5                     	;# 
   283  0FE6                     	;# 
   284  0FE7                     	;# 
   285  0FE8                     	;# 
   286  0FE9                     	;# 
   287  0FEA                     	;# 
   288  0FEB                     	;# 
   289  0FED                     	;# 
   290  0FEE                     	;# 
   291  0FEF                     	;# 
   292                           
   293                           	psect	idataCOMMON
   294  03B6                     __pidataCOMMON:	
   295                           
   296                           ;initializer for _levelofDimmer_LSB
   297  03B6  3430               	retlw	48
   298                           
   299                           ;initializer for _levelofDimmer_MSB
   300  03B7  3430               	retlw	48
   301                           
   302                           	psect	idataBANK0
   303  039E                     __pidataBANK0:	
   304                           
   305                           ;initializer for applianceControl@F3837
   306  039E  3423               	retlw	35
   307  039F  3400               	retlw	0
   308                           
   309                           ;initializer for applianceControl@F3835
   310  03A0  3423               	retlw	35
   311  03A1  3400               	retlw	0
   312                           
   313                           ;initializer for _ErrorNames
   314  03A2  3423               	retlw	35
   315  03A3  3423               	retlw	35
   316  03A4  3423               	retlw	35
   317  03A5  3423               	retlw	35
   318  03A6  3400               	retlw	0
   319                           
   320                           	psect	idataBANK1
   321  0240                     __pidataBANK1:	
   322                           
   323                           ;initializer for _mainReceivedDataBuffer
   324  0240  3423               	retlw	35
   325  0241  3400               	retlw	0
   326  0242  3400               	retlw	0
   327  0243  3400               	retlw	0
   328  0244  3400               	retlw	0
   329  0245  3400               	retlw	0
   330  0246  3400               	retlw	0
   331  0247  3400               	retlw	0
   332  0248  3400               	retlw	0
   333  0249  3400               	retlw	0
   334  024A  3400               	retlw	0
   335  024B  3400               	retlw	0
   336  024C  3400               	retlw	0
   337  024D  3400               	retlw	0
   338  024E  3400               	retlw	0
   339  024F  3400               	retlw	0
   340  0250  3400               	retlw	0
   341  0251  3400               	retlw	0
   342                           
   343                           ;initializer for _copy_parentalLockBuffer
   344  0252  3430               	retlw	48
   345  0253  3430               	retlw	48
   346  0254  3430               	retlw	48
   347  0255  3430               	retlw	48
   348  0256  3430               	retlw	48
   349  0257  3430               	retlw	48
   350  0258  3430               	retlw	48
   351  0259  3430               	retlw	48
   352  025A  3430               	retlw	48
   353  025B  3430               	retlw	48
   354  025C  3430               	retlw	48
   355  025D  3430               	retlw	48
   356  025E  3400               	retlw	0
   357  025F  3400               	retlw	0
   358                           
   359                           ;initializer for _parentalLockBuffer
   360  0260  3430               	retlw	48
   361  0261  3430               	retlw	48
   362  0262  3430               	retlw	48
   363  0263  3430               	retlw	48
   364  0264  3430               	retlw	48
   365  0265  3430               	retlw	48
   366  0266  3430               	retlw	48
   367  0267  3430               	retlw	48
   368  0268  3430               	retlw	48
   369  0269  3430               	retlw	48
   370  026A  3430               	retlw	48
   371  026B  3430               	retlw	48
   372  026C  3400               	retlw	0
   373  026D  3400               	retlw	0
   374                           
   375                           ;initializer for _tempReceivedDataBuffer
   376  026E  3423               	retlw	35
   377  026F  3400               	retlw	0
   378  0270  3400               	retlw	0
   379  0271  3400               	retlw	0
   380  0272  3400               	retlw	0
   381  0273  3400               	retlw	0
   382  0274  3400               	retlw	0
   383  0275  3400               	retlw	0
   384  0276  3400               	retlw	0
   385  0277  3400               	retlw	0
   386                           
   387                           	psect	idataBANK2
   388  0206                     __pidataBANK2:	
   389                           
   390                           ;initializer for _currentStateBuffer
   391  0206  3423               	retlw	35
   392  0207  3400               	retlw	0
   393  0208  3400               	retlw	0
   394  0209  3400               	retlw	0
   395  020A  3400               	retlw	0
   396  020B  3400               	retlw	0
   397  020C  3400               	retlw	0
   398  020D  3400               	retlw	0
   399  020E  3400               	retlw	0
   400  020F  3400               	retlw	0
   401  0210  3400               	retlw	0
   402  0211  3400               	retlw	0
   403  0212  3400               	retlw	0
   404  0213  3400               	retlw	0
   405  0214  3400               	retlw	0
   406  0215  3400               	retlw	0
   407  0216  3400               	retlw	0
   408  0217  3400               	retlw	0
   409  0218  3400               	retlw	0
   410  0219  3400               	retlw	0
   411  021A  3400               	retlw	0
   412  021B  3400               	retlw	0
   413  021C  3400               	retlw	0
   414  021D  3400               	retlw	0
   415  021E  3400               	retlw	0
   416  021F  3400               	retlw	0
   417  0220  3400               	retlw	0
   418  0221  3400               	retlw	0
   419  0222  3400               	retlw	0
   420  0223  3400               	retlw	0
   421  0224  3400               	retlw	0
   422  0225  3400               	retlw	0
   423  0226  3400               	retlw	0
   424  0227  3400               	retlw	0
   425  0228  3400               	retlw	0
   426  0229  3400               	retlw	0
   427  022A  3400               	retlw	0
   428  022B  3400               	retlw	0
   429  022C  3400               	retlw	0
   430  022D  3400               	retlw	0
   431  022E  3400               	retlw	0
   432  022F  3400               	retlw	0
   433  0230  3400               	retlw	0
   434  0231  3400               	retlw	0
   435  0232  3400               	retlw	0
   436  0233  3400               	retlw	0
   437  0234  3400               	retlw	0
   438  0235  3400               	retlw	0
   439  0236  3400               	retlw	0
   440  0237  3400               	retlw	0
   441  0238  3400               	retlw	0
   442  0239  3400               	retlw	0
   443  023A  3400               	retlw	0
   444  023B  3400               	retlw	0
   445  023C  3400               	retlw	0
   446  023D  3400               	retlw	0
   447  023E  3400               	retlw	0
   448  023F  3400               	retlw	0
   449  000C                     _PORTAbits	set	12
   450  000E                     _PORTCbits	set	14
   451  000D                     _PORTBbits	set	13
   452  005E                     _PEIE	set	94
   453  005F                     _GIE	set	95
   454  007A                     _RD2	set	122
   455  007B                     _RD3	set	123
   456  007C                     _RD4	set	124
   457  007D                     _RD5	set	125
   458  007E                     _RD6	set	126
   459  007F                     _RD7	set	127
   460  008D                     _RC1IF	set	141
   461  0091                     _PIE1bits	set	145
   462  008C                     _TRISAbits	set	140
   463  008E                     _TRISCbits	set	142
   464  008D                     _TRISBbits	set	141
   465  008F                     _TRISDbits	set	143
   466  018C                     _ANSELA	set	396
   467  018D                     _ANSELB	set	397
   468  018F                     _ANSELD	set	399
   469  0190                     _ANSELE	set	400
   470  019E                     _TX1STAbits	set	414
   471  019C                     _SP1BRGH	set	412
   472  019B                     _SP1BRGL	set	411
   473  019E                     _TX1STA	set	414
   474  019D                     _RC1STA	set	413
   475  019F                     _BAUD1CON	set	415
   476  019A                     _TX1REG	set	410
   477  0199                     _RC1REG	set	409
   478  019D                     _RC1STAbits	set	413
   479  020D                     _WPUB	set	525
   480  020F                     _WPUD	set	527
   481  0210                     _WPUE	set	528
   482  028C                     _PORTFbits	set	652
   483  1466                     _RF6	set	5222
   484  1465                     _RF5	set	5221
   485  1464                     _RF4	set	5220
   486  1463                     _RF3	set	5219
   487  1462                     _RF2	set	5218
   488  030C                     _TRISFbits	set	780
   489  040C                     _ANSELF	set	1036
   490  040D                     _ANSELG	set	1037
   491  048D                     _WPUG	set	1165
   492                           
   493                           ; #config settings
   494  0000                     
   495                           	psect	cinit
   496  006B                     start_initialization:	
   497  006B                     __initialization:	
   498                           
   499                           ; Initialize objects allocated to COMMON
   500  006B  3183  23B6  3180   	fcall	__pidataCOMMON	;fetch initializer
   501  006E  00FA               	movwf	__pdataCOMMON& (0+127)
   502  006F  3183  23B7  3180   	fcall	__pidataCOMMON+1	;fetch initializer
   503  0072  00FB               	movwf	(__pdataCOMMON+1)& (0+127)
   504                           
   505                           ; Initialize objects allocated to BANK0
   506  0073  309E               	movlw	low __pidataBANK0
   507  0074  0084               	movwf	4
   508  0075  3083               	movlw	(high __pidataBANK0)| (0+128)
   509  0076  0085               	movwf	5
   510  0077  3067               	movlw	low __pdataBANK0
   511  0078  0086               	movwf	6
   512  0079  3000               	movlw	high __pdataBANK0
   513  007A  0087               	movwf	7
   514  007B  3009               	movlw	9
   515  007C  3183  23A7  3180   	fcall	init_ram
   516                           
   517                           ; Initialize objects allocated to BANK1
   518  007F  3040               	movlw	low __pidataBANK1
   519  0080  0084               	movwf	4
   520  0081  3082               	movlw	(high __pidataBANK1)| (0+128)
   521  0082  0085               	movwf	5
   522  0083  30A0               	movlw	low __pdataBANK1
   523  0084  0086               	movwf	6
   524  0085  3000               	movlw	high __pdataBANK1
   525  0086  0087               	movwf	7
   526  0087  3038               	movlw	56
   527  0088  3183  23A7  3180   	fcall	init_ram
   528                           
   529                           ; Initialize objects allocated to BANK2
   530  008B  3006               	movlw	low __pidataBANK2
   531  008C  0084               	movwf	4
   532  008D  3082               	movlw	(high __pidataBANK2)| (0+128)
   533  008E  0085               	movwf	5
   534  008F  3020               	movlw	low __pdataBANK2
   535  0090  0086               	movwf	6
   536  0091  3001               	movlw	high __pdataBANK2
   537  0092  0087               	movwf	7
   538  0093  303A               	movlw	58
   539  0094  3183  23A7  3180   	fcall	init_ram
   540                           
   541                           ; Clear objects allocated to COMMON
   542  0097  01F6               	clrf	__pbssCOMMON& (0+127)
   543  0098  01F7               	clrf	(__pbssCOMMON+1)& (0+127)
   544  0099  01F8               	clrf	(__pbssCOMMON+2)& (0+127)
   545  009A  01F9               	clrf	(__pbssCOMMON+3)& (0+127)
   546                           
   547                           ; Clear objects allocated to BANK0
   548  009B  304D               	movlw	low __pbssBANK0
   549  009C  0084               	movwf	4
   550  009D  3000               	movlw	high __pbssBANK0
   551  009E  0085               	movwf	5
   552  009F  301A               	movlw	26
   553  00A0  3183  23AD         	fcall	clear_ram0
   554  00A2                     end_of_initialization:	
   555                           ;End of C runtime variable initialization code
   556                           
   557  00A2                     __end_of__initialization:	
   558  00A2  107E               	bcf	int$flags,0	;clear compiler interrupt flag (level 1)
   559  00A3  0020               	movlb	0
   560  00A4  3188  2843         	ljmp	_main	;jump to C main() function
   561                           
   562                           	psect	bssCOMMON
   563  0076                     __pbssCOMMON:	
   564  0076                     _start_PWM_Generation_in_ISR_FLAG:	
   565  0076                     	ds	2
   566  0078                     _mainReceivedDataPosition:	
   567  0078                     	ds	2
   568                           
   569                           	psect	dataCOMMON
   570  007A                     __pdataCOMMON:	
   571  007A                     _levelofDimmer_LSB:	
   572  007A                     	ds	1
   573  007B                     _levelofDimmer_MSB:	
   574  007B                     	ds	1
   575                           
   576                           	psect	bssBANK0
   577  004D                     __pbssBANK0:	
   578  004D                     _M12:	
   579  004D                     	ds	2
   580  004F                     _M11:	
   581  004F                     	ds	2
   582  0051                     _M10:	
   583  0051                     	ds	2
   584  0053                     _M9:	
   585  0053                     	ds	2
   586  0055                     _M8:	
   587  0055                     	ds	2
   588  0057                     _M7:	
   589  0057                     	ds	2
   590  0059                     _M6:	
   591  0059                     	ds	2
   592  005B                     _M5:	
   593  005B                     	ds	2
   594  005D                     _M4:	
   595  005D                     	ds	2
   596  005F                     _M3:	
   597  005F                     	ds	2
   598  0061                     _M2:	
   599  0061                     	ds	2
   600  0063                     _M1:	
   601  0063                     	ds	2
   602  0065                     _mainDataReceived:	
   603  0065                     	ds	2
   604                           
   605                           	psect	dataBANK0
   606  0067                     __pdataBANK0:	
   607  0067                     applianceControl@F3837:	
   608  0067                     	ds	2
   609  0069                     applianceControl@F3835:	
   610  0069                     	ds	2
   611  006B                     _ErrorNames:	
   612  006B                     	ds	5
   613                           
   614                           	psect	dataBANK1
   615  00A0                     __pdataBANK1:	
   616  00A0                     _mainReceivedDataBuffer:	
   617  00A0                     	ds	18
   618  00B2                     _copy_parentalLockBuffer:	
   619  00B2                     	ds	14
   620  00C0                     _parentalLockBuffer:	
   621  00C0                     	ds	14
   622  00CE                     _tempReceivedDataBuffer:	
   623  00CE                     	ds	10
   624                           
   625                           	psect	dataBANK2
   626  0120                     __pdataBANK2:	
   627  0120                     _currentStateBuffer:	
   628  0120                     	ds	58
   629                           
   630                           	psect	inittext
   631  03A7                     init_ram:	
   632  03A7  00FE               	movwf	126
   633  03A8                     initloop:	
   634  03A8  0012               	moviw fsr0++
   635  03A9  001E               	movwi fsr1++
   636  03AA  0BFE               	decfsz	126,f
   637  03AB  2BA8               	goto	initloop
   638  03AC  3400               	retlw	0
   639                           
   640                           	psect	clrtext
   641  03AD                     clear_ram0:	
   642                           ;	Called with FSR0 containing the base address, and
   643                           ;	WREG with the size to clear
   644                           
   645  03AD  0064               	clrwdt	;clear the watchdog before getting into this loop
   646  03AE                     clrloop0:	
   647  03AE  0180               	clrf	0	;clear RAM location pointed to by FSR
   648  03AF  3101               	addfsr 0,1
   649  03B0  0B89               	decfsz	9,f	;Have we reached the end of clearing yet?
   650  03B1  2BAE               	goto	clrloop0	;have we reached the end yet?
   651  03B2  3400               	retlw	0	;all done for this memory range, return
   652                           
   653                           	psect	cstackCOMMON
   654  0070                     __pcstackCOMMON:	
   655  0070                     ?_isdigit:	
   656  0070                     ?_errorsISR:	
   657                           ; 1 bit 
   658                           
   659  0070                     ??_errorsISR:	
   660                           ; 1 bytes @ 0x0
   661                           
   662  0070                     ?_GPIO_pin_Initialize:	
   663                           ; 1 bytes @ 0x0
   664                           
   665  0070                     ?_allPeripheralInit:	
   666                           ; 1 bytes @ 0x0
   667                           
   668  0070                     ?_copyReceivedDataBuffer:	
   669                           ; 1 bytes @ 0x0
   670                           
   671  0070                     ?_errorsMain:	
   672                           ; 1 bytes @ 0x0
   673                           
   674  0070                     ?_sendAcknowledgment:	
   675                           ; 1 bytes @ 0x0
   676                           
   677  0070                     ?_clearAllPorts:	
   678                           ; 1 bytes @ 0x0
   679                           
   680  0070                     ?_pinINIT_extra:	
   681                           ; 1 bytes @ 0x0
   682                           
   683  0070                     ?_EUSART_Initialize:	
   684                           ; 1 bytes @ 0x0
   685                           
   686  0070                     ?_isr:	
   687                           ; 1 bytes @ 0x0
   688                           
   689  0070                     ?_main:	
   690                           ; 1 bytes @ 0x0
   691                           
   692                           
   693                           ; 2 bytes @ 0x0
   694  0070                     	ds	1
   695  0071                     errorsISR@Tx_count:	
   696                           
   697                           ; 2 bytes @ 0x1
   698  0071                     	ds	2
   699  0073                     errorsISR@errNum:	
   700                           
   701                           ; 1 bytes @ 0x3
   702  0073                     	ds	1
   703  0074                     ??_isr:	
   704                           
   705                           ; 1 bytes @ 0x4
   706  0074                     	ds	2
   707                           
   708                           	psect	cstackBANK0
   709  0020                     __pcstackBANK0:	
   710  0020                     ??_GPIO_pin_Initialize:	
   711  0020                     ??_allPeripheralInit:	
   712                           ; 1 bytes @ 0x0
   713                           
   714  0020                     ??_copyReceivedDataBuffer:	
   715                           ; 1 bytes @ 0x0
   716                           
   717  0020                     ??_errorsMain:	
   718                           ; 1 bytes @ 0x0
   719                           
   720  0020                     ??_sendAcknowledgment:	
   721                           ; 1 bytes @ 0x0
   722                           
   723  0020                     ??_clearAllPorts:	
   724                           ; 1 bytes @ 0x0
   725                           
   726  0020                     ??_pinINIT_extra:	
   727                           ; 1 bytes @ 0x0
   728                           
   729  0020                     ??_EUSART_Initialize:	
   730                           ; 1 bytes @ 0x0
   731                           
   732  0020                     ??_isdigit:	
   733                           ; 1 bytes @ 0x0
   734                           
   735  0020                     ?___wmul:	
   736                           ; 1 bytes @ 0x0
   737                           
   738  0020                     _isdigit$677:	
   739                           ; 2 bytes @ 0x0
   740                           
   741  0020                     ___wmul@multiplier:	
   742                           ; 1 bytes @ 0x0
   743                           
   744                           
   745                           ; 2 bytes @ 0x0
   746  0020                     	ds	1
   747  0021                     isdigit@c:	
   748  0021                     errorsMain@Tx_count:	
   749                           ; 1 bytes @ 0x1
   750                           
   751  0021                     sendAcknowledgment@Tx_count:	
   752                           ; 2 bytes @ 0x1
   753                           
   754  0021                     copyReceivedDataBuffer@dataBufferCounter:	
   755                           ; 2 bytes @ 0x1
   756                           
   757                           
   758                           ; 2 bytes @ 0x1
   759  0021                     	ds	1
   760  0022                     ___wmul@multiplicand:	
   761                           
   762                           ; 2 bytes @ 0x2
   763  0022                     	ds	1
   764  0023                     errorsMain@errNum:	
   765  0023                     sendAcknowledgment@currentStateBuffer:	
   766                           ; 1 bytes @ 0x3
   767                           
   768                           
   769                           ; 1 bytes @ 0x3
   770  0023                     	ds	1
   771  0024                     ??___wmul:	
   772  0024                     ___wmul@product:	
   773                           ; 1 bytes @ 0x4
   774                           
   775                           
   776                           ; 2 bytes @ 0x4
   777  0024                     	ds	2
   778  0026                     ?_atoi:	
   779                           
   780                           ; 2 bytes @ 0x6
   781  0026                     	ds	2
   782  0028                     ??_atoi:	
   783                           
   784                           ; 1 bytes @ 0x8
   785  0028                     	ds	2
   786  002A                     atoi@sign:	
   787                           
   788                           ; 1 bytes @ 0xA
   789  002A                     	ds	1
   790  002B                     atoi@a:	
   791                           
   792                           ; 2 bytes @ 0xB
   793  002B                     	ds	2
   794  002D                     atoi@s:	
   795                           
   796                           ; 1 bytes @ 0xD
   797  002D                     	ds	1
   798  002E                     ?_applianceControl:	
   799  002E                     applianceControl@charSwitchLSB:	
   800                           ; 1 bytes @ 0xE
   801                           
   802                           
   803                           ; 1 bytes @ 0xE
   804  002E                     	ds	1
   805  002F                     applianceControl@charSwitchSTATE:	
   806                           
   807                           ; 1 bytes @ 0xF
   808  002F                     	ds	1
   809  0030                     applianceControl@chDimmerSpeedMSB:	
   810                           
   811                           ; 1 bytes @ 0x10
   812  0030                     	ds	1
   813  0031                     applianceControl@chDimmerSpeedLSB:	
   814                           
   815                           ; 1 bytes @ 0x11
   816  0031                     	ds	1
   817  0032                     applianceControl@charParentalControl:	
   818                           
   819                           ; 1 bytes @ 0x12
   820  0032                     	ds	1
   821  0033                     applianceControl@charFinalFrameState:	
   822                           
   823                           ; 1 bytes @ 0x13
   824  0033                     	ds	1
   825  0034                     ??_applianceControl:	
   826                           
   827                           ; 1 bytes @ 0x14
   828  0034                     	ds	2
   829  0036                     applianceControl@integerSpeed:	
   830                           
   831                           ; 2 bytes @ 0x16
   832  0036                     	ds	2
   833  0038                     applianceControl@charSwitchMSB:	
   834                           
   835                           ; 1 bytes @ 0x18
   836  0038                     	ds	1
   837  0039                     applianceControl@switchNumberStringBuffer:	
   838                           
   839                           ; 2 bytes @ 0x19
   840  0039                     	ds	2
   841  003B                     applianceControl@dimmerSpeedStringBuffer:	
   842                           
   843                           ; 2 bytes @ 0x1B
   844  003B                     	ds	2
   845  003D                     applianceControl@integerSwitchNumber:	
   846                           
   847                           ; 2 bytes @ 0x1D
   848  003D                     	ds	2
   849  003F                     applianceControl@currentStateBufferPositions:	
   850                           
   851                           ; 2 bytes @ 0x1F
   852  003F                     	ds	2
   853  0041                     applianceControl@integerSwitchState:	
   854                           
   855                           ; 2 bytes @ 0x21
   856  0041                     	ds	2
   857  0043                     ??_main:	
   858                           
   859                           ; 1 bytes @ 0x23
   860  0043                     	ds	6
   861  0049                     main@dataBufferCounter:	
   862                           
   863                           ; 2 bytes @ 0x29
   864  0049                     	ds	2
   865  004B                     main@man:	
   866                           
   867                           ; 2 bytes @ 0x2B
   868  004B                     	ds	2
   869                           
   870                           	psect	maintext
   871  0843                     __pmaintext:	
   872 ;;
   873 ;;Main: autosize = 0, tempsize = 6, incstack = 0, save=0
   874 ;;
   875 ;; *************** function _main *****************
   876 ;; Defined at:
   877 ;;		line 211 in file "megaonoff.c"
   878 ;; Parameters:    Size  Location     Type
   879 ;;		None
   880 ;; Auto vars:     Size  Location     Type
   881 ;;  dataBufferCo    2   41[BANK0 ] int 
   882 ;;  man             2   43[BANK0 ] int 
   883 ;; Return value:  Size  Location     Type
   884 ;;                  2  170[None  ] int 
   885 ;; Registers used:
   886 ;;		wreg, fsr0l, fsr0h, fsr1l, fsr1h, status,2, status,0, pclath, cstack
   887 ;; Tracked objects:
   888 ;;		On entry : B1F/0
   889 ;;		On exit  : 0/0
   890 ;;		Unchanged: 0/0
   891 ;; Data sizes:     COMMON   BANK0   BANK1   BANK2   BANK3   BANK4   BANK5   BANK6   BANK7   BANK8   BANK9
   892 ;;      Params:         0       0       0       0       0       0       0       0       0       0       0
   893 ;;      Locals:         0       4       0       0       0       0       0       0       0       0       0
   894 ;;      Temps:          0       6       0       0       0       0       0       0       0       0       0
   895 ;;      Totals:         0      10       0       0       0       0       0       0       0       0       0
   896 ;;Total ram usage:       10 bytes
   897 ;; Hardware stack levels required when called:    5
   898 ;; This function calls:
   899 ;;		_GPIO_pin_Initialize
   900 ;;		_allPeripheralInit
   901 ;;		_applianceControl
   902 ;;		_copyReceivedDataBuffer
   903 ;;		_errorsMain
   904 ;; This function is called by:
   905 ;;		Startup code after reset
   906 ;; This function uses a non-reentrant model
   907 ;;
   908                           
   909                           
   910                           ;psect for function _main
   911  0843                     _main:	
   912                           
   913                           ;megaonoff.c: 212: _delay((unsigned long)((2000)*(16000000/4000.0)));
   914                           
   915                           ;incstack = 0
   916                           ; Regs used in _main: [wreg-fsr1h+status,2+status,0+pclath+cstack]
   917  0843  3029               	movlw	41
   918  0844  0020               	movlb	0	; select bank0
   919  0845  00C4               	movwf	??_main+1
   920  0846  3096               	movlw	150
   921  0847  00C3               	movwf	??_main
   922  0848  307F               	movlw	127
   923  0849                     u3557:	
   924  0849  0B89               	decfsz	9,f
   925  084A  2849               	goto	u3557
   926  084B  0BC3               	decfsz	??_main,f
   927  084C  2849               	goto	u3557
   928  084D  0BC4               	decfsz	??_main+1,f
   929  084E  2849               	goto	u3557
   930                           
   931                           ;megaonoff.c: 213: M1=1; M2=1; M3=1; M4=1; M5=1; M6=1; M7=1;M8=1;
   932  084F  3001               	movlw	1
   933  0850  0020               	movlb	0	; select bank0
   934  0851  00E3               	movwf	_M1
   935  0852  3000               	movlw	0
   936  0853  00E4               	movwf	_M1+1
   937  0854  3001               	movlw	1
   938  0855  00E1               	movwf	_M2
   939  0856  3000               	movlw	0
   940  0857  00E2               	movwf	_M2+1
   941  0858  3001               	movlw	1
   942  0859  00DF               	movwf	_M3
   943  085A  3000               	movlw	0
   944  085B  00E0               	movwf	_M3+1
   945  085C  3001               	movlw	1
   946  085D  00DD               	movwf	_M4
   947  085E  3000               	movlw	0
   948  085F  00DE               	movwf	_M4+1
   949  0860  3001               	movlw	1
   950  0861  00DB               	movwf	_M5
   951  0862  3000               	movlw	0
   952  0863  00DC               	movwf	_M5+1
   953  0864  3001               	movlw	1
   954  0865  00D9               	movwf	_M6
   955  0866  3000               	movlw	0
   956  0867  00DA               	movwf	_M6+1
   957  0868  3001               	movlw	1
   958  0869  00D7               	movwf	_M7
   959  086A  3000               	movlw	0
   960  086B  00D8               	movwf	_M7+1
   961  086C  3001               	movlw	1
   962  086D  00D5               	movwf	_M8
   963  086E  3000               	movlw	0
   964  086F  00D6               	movwf	_M8+1
   965                           
   966                           ;megaonoff.c: 214: M9=1; M10=1; M11=1;M12=1;
   967  0870  3001               	movlw	1
   968  0871  00D3               	movwf	_M9
   969  0872  3000               	movlw	0
   970  0873  00D4               	movwf	_M9+1
   971  0874  3001               	movlw	1
   972  0875  00D1               	movwf	_M10
   973  0876  3000               	movlw	0
   974  0877  00D2               	movwf	_M10+1
   975  0878  3001               	movlw	1
   976  0879  00CF               	movwf	_M11
   977  087A  3000               	movlw	0
   978  087B  00D0               	movwf	_M11+1
   979  087C  3001               	movlw	1
   980  087D  00CD               	movwf	_M12
   981  087E  3000               	movlw	0
   982  087F  00CE               	movwf	_M12+1
   983                           
   984                           ;megaonoff.c: 217: GPIO_pin_Initialize();
   985  0880  3182  22A7  3188   	fcall	_GPIO_pin_Initialize
   986                           
   987                           ;megaonoff.c: 218: allPeripheralInit();
   988  0883  3183  23B3  3188   	fcall	_allPeripheralInit
   989  0886                     l2386:	
   990                           ;megaonoff.c: 220: while(1){
   991                           
   992                           
   993                           ;megaonoff.c: 221: if(mainDataReceived==1){
   994  0886  0020               	movlb	0	; select bank0
   995  0887  0365               	decf	_mainDataReceived,w
   996  0888  0466               	iorwf	_mainDataReceived+1,w
   997  0889  1D03               	btfss	3,2
   998  088A  290C               	goto	l2422
   999                           
  1000                           ;megaonoff.c: 222: mainDataReceived=0;
  1001  088B  01E5               	clrf	_mainDataReceived
  1002  088C  01E6               	clrf	_mainDataReceived+1
  1003                           
  1004                           ;megaonoff.c: 223: if(mainReceivedDataBuffer[0]=='%' && mainReceivedDataBuffer[1]=='%' &
      +                          & mainReceivedDataBuffer[14]=='@' && mainReceivedDataBuffer[15]=='@'){
  1005  088D  3025               	movlw	37
  1006  088E  0021               	movlb	1	; select bank1
  1007  088F  0620               	xorwf	_mainReceivedDataBuffer^(0+128),w
  1008  0890  1D03               	btfss	3,2
  1009  0891  28CB               	goto	l2402
  1010  0892  3025               	movlw	37
  1011  0893  0621               	xorwf	(_mainReceivedDataBuffer^(0+128)+1),w
  1012  0894  1D03               	btfss	3,2
  1013  0895  28CB               	goto	l2402
  1014  0896  3040               	movlw	64
  1015  0897  062E               	xorwf	(_mainReceivedDataBuffer^(0+128)+14),w
  1016  0898  1D03               	btfss	3,2
  1017  0899  28CB               	goto	l2402
  1018  089A  3040               	movlw	64
  1019  089B  062F               	xorwf	(_mainReceivedDataBuffer^(0+128)+15),w
  1020  089C  1D03               	btfss	3,2
  1021  089D  28CB               	goto	l2402
  1022                           
  1023                           ;megaonoff.c: 224: copyReceivedDataBuffer();
  1024  089E  3182  2278  3188   	fcall	_copyReceivedDataBuffer
  1025                           
  1026                           ;megaonoff.c: 226: applianceControl(tempReceivedDataBuffer[0],
  1027                           ;megaonoff.c: 227: tempReceivedDataBuffer[1],
  1028                           ;megaonoff.c: 228: tempReceivedDataBuffer[2],
  1029                           ;megaonoff.c: 229: tempReceivedDataBuffer[3],
  1030                           ;megaonoff.c: 230: tempReceivedDataBuffer[4],
  1031                           ;megaonoff.c: 231: tempReceivedDataBuffer[5],
  1032                           ;megaonoff.c: 232: tempReceivedDataBuffer[6]);
  1033  08A1  0021               	movlb	1	; select bank1
  1034  08A2  084F               	movf	(_tempReceivedDataBuffer^(0+128)+1),w
  1035  08A3  0020               	movlb	0	; select bank0
  1036  08A4  00C3               	movwf	??_main
  1037  08A5  0843               	movf	??_main,w
  1038  08A6  00AE               	movwf	applianceControl@charSwitchLSB
  1039  08A7  0021               	movlb	1	; select bank1
  1040  08A8  0850               	movf	(_tempReceivedDataBuffer^(0+128)+2),w
  1041  08A9  0020               	movlb	0	; select bank0
  1042  08AA  00C4               	movwf	??_main+1
  1043  08AB  0844               	movf	??_main+1,w
  1044  08AC  00AF               	movwf	applianceControl@charSwitchSTATE
  1045  08AD  0021               	movlb	1	; select bank1
  1046  08AE  0851               	movf	(_tempReceivedDataBuffer^(0+128)+3),w
  1047  08AF  0020               	movlb	0	; select bank0
  1048  08B0  00C5               	movwf	??_main+2
  1049  08B1  0845               	movf	??_main+2,w
  1050  08B2  00B0               	movwf	applianceControl@chDimmerSpeedMSB
  1051  08B3  0021               	movlb	1	; select bank1
  1052  08B4  0852               	movf	(_tempReceivedDataBuffer^(0+128)+4),w
  1053  08B5  0020               	movlb	0	; select bank0
  1054  08B6  00C6               	movwf	??_main+3
  1055  08B7  0846               	movf	??_main+3,w
  1056  08B8  00B1               	movwf	applianceControl@chDimmerSpeedLSB
  1057  08B9  0021               	movlb	1	; select bank1
  1058  08BA  0853               	movf	(_tempReceivedDataBuffer^(0+128)+5),w
  1059  08BB  0020               	movlb	0	; select bank0
  1060  08BC  00C7               	movwf	??_main+4
  1061  08BD  0847               	movf	??_main+4,w
  1062  08BE  00B2               	movwf	applianceControl@charParentalControl
  1063  08BF  0021               	movlb	1	; select bank1
  1064  08C0  0854               	movf	(_tempReceivedDataBuffer^(0+128)+6),w
  1065  08C1  0020               	movlb	0	; select bank0
  1066  08C2  00C8               	movwf	??_main+5
  1067  08C3  0848               	movf	??_main+5,w
  1068  08C4  00B3               	movwf	applianceControl@charFinalFrameState
  1069  08C5  0021               	movlb	1	; select bank1
  1070  08C6  084E               	movf	_tempReceivedDataBuffer^(0+128),w
  1071  08C7  3180  20A6  3188   	fcall	_applianceControl
  1072                           
  1073                           ;megaonoff.c: 234: }
  1074  08CA  290C               	goto	l2422
  1075  08CB                     l2402:	
  1076                           
  1077                           ;megaonoff.c: 235: else
  1078                           ;megaonoff.c: 236: {
  1079                           ;megaonoff.c: 237: ErrorNames[0]='E'; ErrorNames[1]='R'; ErrorNames[2]='L'; ErrorNames[3
      +                          ]='S';
  1080  08CB  3045               	movlw	69
  1081  08CC  0020               	movlb	0	; select bank0
  1082  08CD  00C3               	movwf	??_main
  1083  08CE  0843               	movf	??_main,w
  1084  08CF  00EB               	movwf	_ErrorNames
  1085  08D0  3052               	movlw	82
  1086  08D1  00C3               	movwf	??_main
  1087  08D2  0843               	movf	??_main,w
  1088  08D3  00EC               	movwf	_ErrorNames+1
  1089  08D4  304C               	movlw	76
  1090  08D5  00C3               	movwf	??_main
  1091  08D6  0843               	movf	??_main,w
  1092  08D7  00ED               	movwf	_ErrorNames+2
  1093  08D8  3053               	movlw	83
  1094  08D9  00C3               	movwf	??_main
  1095  08DA  0843               	movf	??_main,w
  1096  08DB  00EE               	movwf	_ErrorNames+3
  1097                           
  1098                           ;megaonoff.c: 238: errorsMain(ErrorNames);
  1099  08DC  306B               	movlw	(low (_ErrorNames| 0))& (0+255)
  1100  08DD  3182  22EC  3188   	fcall	_errorsMain
  1101                           
  1102                           ;megaonoff.c: 239: RC1STAbits.SPEN=0;
  1103  08E0  0023               	movlb	3	; select bank3
  1104  08E1  139D               	bcf	29,7	;volatile
  1105                           
  1106                           ;megaonoff.c: 240: RC1STAbits.CREN = 0;
  1107  08E2  121D               	bcf	29,4	;volatile
  1108                           
  1109                           ;megaonoff.c: 241: for(int dataBufferCounter = 0; dataBufferCounter< 15; dataBufferCount
      +                          er++)
  1110  08E3  0020               	movlb	0	; select bank0
  1111  08E4  01C9               	clrf	main@dataBufferCounter
  1112  08E5  01CA               	clrf	main@dataBufferCounter+1
  1113  08E6  084A               	movf	main@dataBufferCounter+1,w
  1114  08E7  3A80               	xorlw	128
  1115  08E8  00C3               	movwf	??_main
  1116  08E9  3080               	movlw	128
  1117  08EA  0243               	subwf	??_main,w
  1118  08EB  1D03               	skipz
  1119  08EC  28EF               	goto	u2655
  1120  08ED  300F               	movlw	15
  1121  08EE  0249               	subwf	main@dataBufferCounter,w
  1122  08EF                     u2655:	
  1123  08EF  1803               	btfsc	3,0
  1124  08F0  2909               	goto	l176
  1125  08F1                     l2416:	
  1126                           
  1127                           ;megaonoff.c: 242: {
  1128                           ;megaonoff.c: 243: mainReceivedDataBuffer[dataBufferCounter] = '#';
  1129  08F1  3023               	movlw	35
  1130  08F2  0020               	movlb	0	; select bank0
  1131  08F3  00C3               	movwf	??_main
  1132  08F4  0849               	movf	main@dataBufferCounter,w
  1133  08F5  3EA0               	addlw	(low (_mainReceivedDataBuffer| 0))& (0+255)
  1134  08F6  0086               	movwf	6
  1135  08F7  0187               	clrf	7
  1136  08F8  0843               	movf	??_main,w
  1137  08F9  0081               	movwf	1
  1138  08FA  3001               	movlw	1
  1139  08FB  07C9               	addwf	main@dataBufferCounter,f
  1140  08FC  3000               	movlw	0
  1141  08FD  3DCA               	addwfc	main@dataBufferCounter+1,f
  1142  08FE  084A               	movf	main@dataBufferCounter+1,w
  1143  08FF  3A80               	xorlw	128
  1144  0900  00C3               	movwf	??_main
  1145  0901  3080               	movlw	128
  1146  0902  0243               	subwf	??_main,w
  1147  0903  1D03               	skipz
  1148  0904  2907               	goto	u2665
  1149  0905  300F               	movlw	15
  1150  0906  0249               	subwf	main@dataBufferCounter,w
  1151  0907                     u2665:	
  1152  0907  1C03               	skipc
  1153  0908  28F1               	goto	l2416
  1154  0909                     l176:	
  1155                           
  1156                           ;megaonoff.c: 244: }
  1157                           ;megaonoff.c: 245: RC1STAbits.CREN = 1;
  1158  0909  0023               	movlb	3	; select bank3
  1159  090A  161D               	bsf	29,4	;volatile
  1160                           
  1161                           ;megaonoff.c: 246: RC1STAbits.SPEN=1;
  1162  090B  179D               	bsf	29,7	;volatile
  1163  090C                     l2422:	
  1164                           
  1165                           ;megaonoff.c: 247: }
  1166                           ;megaonoff.c: 248: }
  1167                           ;megaonoff.c: 254: int man = 1;
  1168  090C  3001               	movlw	1
  1169  090D  0020               	movlb	0	; select bank0
  1170  090E  00CB               	movwf	main@man
  1171  090F  3000               	movlw	0
  1172  0910  00CC               	movwf	main@man+1
  1173                           
  1174                           ;megaonoff.c: 255: if(copy_parentalLockBuffer[1] == '0' && RF2 == 0 && M1 == 0)
  1175  0911  3030               	movlw	48
  1176  0912  0021               	movlb	1	; select bank1
  1177  0913  0633               	xorwf	(_copy_parentalLockBuffer^(0+128)+1),w
  1178  0914  1D03               	btfss	3,2
  1179  0915  2963               	goto	l2440
  1180  0916  0025               	movlb	5	; select bank5
  1181  0917  190C               	btfsc	12,2	;volatile
  1182  0918  2963               	goto	l2440
  1183  0919  0020               	movlb	0	; select bank0
  1184  091A  0863               	movf	_M1,w
  1185  091B  0464               	iorwf	_M1+1,w
  1186  091C  1D03               	btfss	3,2
  1187  091D  2963               	goto	l2440
  1188                           
  1189                           ;megaonoff.c: 256: {
  1190                           ;megaonoff.c: 257: if(man == 1)
  1191  091E  034B               	decf	main@man,w
  1192  091F  044C               	iorwf	main@man+1,w
  1193  0920  1D03               	btfss	3,2
  1194  0921  295D               	goto	l2436
  1195                           
  1196                           ;megaonoff.c: 258: {
  1197                           ;megaonoff.c: 259: _delay((unsigned long)((5)*(16000000/4000.0)));
  1198  0922  301A               	movlw	26
  1199  0923  0020               	movlb	0	; select bank0
  1200  0924  00C3               	movwf	??_main
  1201  0925  30F8               	movlw	248
  1202  0926                     u3567:	
  1203  0926  0B89               	decfsz	9,f
  1204  0927  2926               	goto	u3567
  1205  0928  0BC3               	decfsz	??_main,f
  1206  0929  2926               	goto	u3567
  1207  092A  0000               	nop
  1208                           
  1209                           ;megaonoff.c: 260: TX1REG = 'R';_delay((unsigned long)((1)*(16000000/4000.0)));
  1210  092B  3052               	movlw	82
  1211  092C  0023               	movlb	3	; select bank3
  1212  092D  009A               	movwf	26	;volatile
  1213  092E  3006               	movlw	6
  1214  092F  0020               	movlb	0	; select bank0
  1215  0930  00C3               	movwf	??_main
  1216  0931  3030               	movlw	48
  1217  0932                     u3577:	
  1218  0932  0B89               	decfsz	9,f
  1219  0933  2932               	goto	u3577
  1220  0934  0BC3               	decfsz	??_main,f
  1221  0935  2932               	goto	u3577
  1222  0936  0000               	nop
  1223                           
  1224                           ;megaonoff.c: 261: TX1REG = '0';_delay((unsigned long)((1)*(16000000/4000.0)));
  1225  0937  3030               	movlw	48
  1226  0938  0023               	movlb	3	; select bank3
  1227  0939  009A               	movwf	26	;volatile
  1228  093A  3006               	movlw	6
  1229  093B  0020               	movlb	0	; select bank0
  1230  093C  00C3               	movwf	??_main
  1231  093D  3030               	movlw	48
  1232  093E                     u3587:	
  1233  093E  0B89               	decfsz	9,f
  1234  093F  293E               	goto	u3587
  1235  0940  0BC3               	decfsz	??_main,f
  1236  0941  293E               	goto	u3587
  1237  0942  0000               	nop
  1238                           
  1239                           ;megaonoff.c: 262: TX1REG = '0';_delay((unsigned long)((1)*(16000000/4000.0)));
  1240  0943  3030               	movlw	48
  1241  0944  0023               	movlb	3	; select bank3
  1242  0945  009A               	movwf	26	;volatile
  1243  0946  3006               	movlw	6
  1244  0947  0020               	movlb	0	; select bank0
  1245  0948  00C3               	movwf	??_main
  1246  0949  3030               	movlw	48
  1247  094A                     u3597:	
  1248  094A  0B89               	decfsz	9,f
  1249  094B  294A               	goto	u3597
  1250  094C  0BC3               	decfsz	??_main,f
  1251  094D  294A               	goto	u3597
  1252  094E  0000               	nop
  1253                           
  1254                           ;megaonoff.c: 263: TX1REG = '1';_delay((unsigned long)((1)*(16000000/4000.0)));
  1255  094F  3031               	movlw	49
  1256  0950  0023               	movlb	3	; select bank3
  1257  0951  009A               	movwf	26	;volatile
  1258  0952  3006               	movlw	6
  1259  0953  0020               	movlb	0	; select bank0
  1260  0954  00C3               	movwf	??_main
  1261  0955  3030               	movlw	48
  1262  0956                     u3607:	
  1263  0956  0B89               	decfsz	9,f
  1264  0957  2956               	goto	u3607
  1265  0958  0BC3               	decfsz	??_main,f
  1266  0959  2956               	goto	u3607
  1267  095A  0000               	nop
  1268                           
  1269                           ;megaonoff.c: 264: PORTBbits.RB1=0;
  1270  095B  0020               	movlb	0	; select bank0
  1271  095C  108D               	bcf	13,1	;volatile
  1272  095D                     l2436:	
  1273                           
  1274                           ;megaonoff.c: 265: }
  1275                           ;megaonoff.c: 266: man=0;
  1276  095D  01CB               	clrf	main@man
  1277  095E  01CC               	clrf	main@man+1
  1278                           
  1279                           ;megaonoff.c: 267: M1=1;
  1280  095F  3001               	movlw	1
  1281  0960  00E3               	movwf	_M1
  1282  0961  3000               	movlw	0
  1283  0962  00E4               	movwf	_M1+1
  1284  0963                     l2440:	
  1285                           
  1286                           ;megaonoff.c: 269: }
  1287                           ;megaonoff.c: 271: if(copy_parentalLockBuffer[1] == '0' && RF2 == 1 && M1 == 1)
  1288  0963  3030               	movlw	48
  1289  0964  0021               	movlb	1	; select bank1
  1290  0965  0633               	xorwf	(_copy_parentalLockBuffer^(0+128)+1),w
  1291  0966  1D03               	btfss	3,2
  1292  0967  29B3               	goto	l2456
  1293  0968  0025               	movlb	5	; select bank5
  1294  0969  1D0C               	btfss	12,2	;volatile
  1295  096A  29B3               	goto	l2456
  1296  096B  0020               	movlb	0	; select bank0
  1297  096C  0363               	decf	_M1,w
  1298  096D  0464               	iorwf	_M1+1,w
  1299  096E  1D03               	btfss	3,2
  1300  096F  29B3               	goto	l2456
  1301                           
  1302                           ;megaonoff.c: 272: {
  1303                           ;megaonoff.c: 274: if(man==1)
  1304  0970  034B               	decf	main@man,w
  1305  0971  044C               	iorwf	main@man+1,w
  1306  0972  1D03               	btfss	3,2
  1307  0973  29AF               	goto	l2452
  1308                           
  1309                           ;megaonoff.c: 275: {
  1310                           ;megaonoff.c: 276: _delay((unsigned long)((5)*(16000000/4000.0)));
  1311  0974  301A               	movlw	26
  1312  0975  0020               	movlb	0	; select bank0
  1313  0976  00C3               	movwf	??_main
  1314  0977  30F8               	movlw	248
  1315  0978                     u3617:	
  1316  0978  0B89               	decfsz	9,f
  1317  0979  2978               	goto	u3617
  1318  097A  0BC3               	decfsz	??_main,f
  1319  097B  2978               	goto	u3617
  1320  097C  0000               	nop
  1321                           
  1322                           ;megaonoff.c: 277: TX1REG = 'R';_delay((unsigned long)((1)*(16000000/4000.0)));
  1323  097D  3052               	movlw	82
  1324  097E  0023               	movlb	3	; select bank3
  1325  097F  009A               	movwf	26	;volatile
  1326  0980  3006               	movlw	6
  1327  0981  0020               	movlb	0	; select bank0
  1328  0982  00C3               	movwf	??_main
  1329  0983  3030               	movlw	48
  1330  0984                     u3627:	
  1331  0984  0B89               	decfsz	9,f
  1332  0985  2984               	goto	u3627
  1333  0986  0BC3               	decfsz	??_main,f
  1334  0987  2984               	goto	u3627
  1335  0988  0000               	nop
  1336                           
  1337                           ;megaonoff.c: 278: TX1REG = '1';_delay((unsigned long)((1)*(16000000/4000.0)));
  1338  0989  3031               	movlw	49
  1339  098A  0023               	movlb	3	; select bank3
  1340  098B  009A               	movwf	26	;volatile
  1341  098C  3006               	movlw	6
  1342  098D  0020               	movlb	0	; select bank0
  1343  098E  00C3               	movwf	??_main
  1344  098F  3030               	movlw	48
  1345  0990                     u3637:	
  1346  0990  0B89               	decfsz	9,f
  1347  0991  2990               	goto	u3637
  1348  0992  0BC3               	decfsz	??_main,f
  1349  0993  2990               	goto	u3637
  1350  0994  0000               	nop
  1351                           
  1352                           ;megaonoff.c: 279: TX1REG = '0';_delay((unsigned long)((1)*(16000000/4000.0)));
  1353  0995  3030               	movlw	48
  1354  0996  0023               	movlb	3	; select bank3
  1355  0997  009A               	movwf	26	;volatile
  1356  0998  3006               	movlw	6
  1357  0999  0020               	movlb	0	; select bank0
  1358  099A  00C3               	movwf	??_main
  1359  099B  3030               	movlw	48
  1360  099C                     u3647:	
  1361  099C  0B89               	decfsz	9,f
  1362  099D  299C               	goto	u3647
  1363  099E  0BC3               	decfsz	??_main,f
  1364  099F  299C               	goto	u3647
  1365  09A0  0000               	nop
  1366                           
  1367                           ;megaonoff.c: 280: TX1REG = '1';_delay((unsigned long)((1)*(16000000/4000.0)));
  1368  09A1  3031               	movlw	49
  1369  09A2  0023               	movlb	3	; select bank3
  1370  09A3  009A               	movwf	26	;volatile
  1371  09A4  3006               	movlw	6
  1372  09A5  0020               	movlb	0	; select bank0
  1373  09A6  00C3               	movwf	??_main
  1374  09A7  3030               	movlw	48
  1375  09A8                     u3657:	
  1376  09A8  0B89               	decfsz	9,f
  1377  09A9  29A8               	goto	u3657
  1378  09AA  0BC3               	decfsz	??_main,f
  1379  09AB  29A8               	goto	u3657
  1380  09AC  0000               	nop
  1381                           
  1382                           ;megaonoff.c: 281: PORTBbits.RB1=1;
  1383  09AD  0020               	movlb	0	; select bank0
  1384  09AE  148D               	bsf	13,1	;volatile
  1385  09AF                     l2452:	
  1386                           
  1387                           ;megaonoff.c: 282: }
  1388                           ;megaonoff.c: 283: man=0;
  1389  09AF  01CB               	clrf	main@man
  1390  09B0  01CC               	clrf	main@man+1
  1391                           
  1392                           ;megaonoff.c: 284: M1=0;
  1393  09B1  01E3               	clrf	_M1
  1394  09B2  01E4               	clrf	_M1+1
  1395  09B3                     l2456:	
  1396                           
  1397                           ;megaonoff.c: 285: }
  1398                           ;megaonoff.c: 289: if(copy_parentalLockBuffer[2] == '0' && RF3 == 0 && M2 == 0)
  1399  09B3  3030               	movlw	48
  1400  09B4  0021               	movlb	1	; select bank1
  1401  09B5  0634               	xorwf	(_copy_parentalLockBuffer^(0+128)+2),w
  1402  09B6  1D03               	btfss	3,2
  1403  09B7  2A05               	goto	l2472
  1404  09B8  0025               	movlb	5	; select bank5
  1405  09B9  198C               	btfsc	12,3	;volatile
  1406  09BA  2A05               	goto	l2472
  1407  09BB  0020               	movlb	0	; select bank0
  1408  09BC  0861               	movf	_M2,w
  1409  09BD  0462               	iorwf	_M2+1,w
  1410  09BE  1D03               	btfss	3,2
  1411  09BF  2A05               	goto	l2472
  1412                           
  1413                           ;megaonoff.c: 290: {
  1414                           ;megaonoff.c: 291: if(man==1)
  1415  09C0  034B               	decf	main@man,w
  1416  09C1  044C               	iorwf	main@man+1,w
  1417  09C2  1D03               	btfss	3,2
  1418  09C3  29FF               	goto	l2468
  1419                           
  1420                           ;megaonoff.c: 292: {
  1421                           ;megaonoff.c: 293: _delay((unsigned long)((5)*(16000000/4000.0)));
  1422  09C4  301A               	movlw	26
  1423  09C5  0020               	movlb	0	; select bank0
  1424  09C6  00C3               	movwf	??_main
  1425  09C7  30F8               	movlw	248
  1426  09C8                     u3667:	
  1427  09C8  0B89               	decfsz	9,f
  1428  09C9  29C8               	goto	u3667
  1429  09CA  0BC3               	decfsz	??_main,f
  1430  09CB  29C8               	goto	u3667
  1431  09CC  0000               	nop
  1432                           
  1433                           ;megaonoff.c: 294: TX1REG = 'R';_delay((unsigned long)((1)*(16000000/4000.0)));
  1434  09CD  3052               	movlw	82
  1435  09CE  0023               	movlb	3	; select bank3
  1436  09CF  009A               	movwf	26	;volatile
  1437  09D0  3006               	movlw	6
  1438  09D1  0020               	movlb	0	; select bank0
  1439  09D2  00C3               	movwf	??_main
  1440  09D3  3030               	movlw	48
  1441  09D4                     u3677:	
  1442  09D4  0B89               	decfsz	9,f
  1443  09D5  29D4               	goto	u3677
  1444  09D6  0BC3               	decfsz	??_main,f
  1445  09D7  29D4               	goto	u3677
  1446  09D8  0000               	nop
  1447                           
  1448                           ;megaonoff.c: 295: TX1REG = '0';_delay((unsigned long)((1)*(16000000/4000.0)));
  1449  09D9  3030               	movlw	48
  1450  09DA  0023               	movlb	3	; select bank3
  1451  09DB  009A               	movwf	26	;volatile
  1452  09DC  3006               	movlw	6
  1453  09DD  0020               	movlb	0	; select bank0
  1454  09DE  00C3               	movwf	??_main
  1455  09DF  3030               	movlw	48
  1456  09E0                     u3687:	
  1457  09E0  0B89               	decfsz	9,f
  1458  09E1  29E0               	goto	u3687
  1459  09E2  0BC3               	decfsz	??_main,f
  1460  09E3  29E0               	goto	u3687
  1461  09E4  0000               	nop
  1462                           
  1463                           ;megaonoff.c: 296: TX1REG = '0';_delay((unsigned long)((1)*(16000000/4000.0)));
  1464  09E5  3030               	movlw	48
  1465  09E6  0023               	movlb	3	; select bank3
  1466  09E7  009A               	movwf	26	;volatile
  1467  09E8  3006               	movlw	6
  1468  09E9  0020               	movlb	0	; select bank0
  1469  09EA  00C3               	movwf	??_main
  1470  09EB  3030               	movlw	48
  1471  09EC                     u3697:	
  1472  09EC  0B89               	decfsz	9,f
  1473  09ED  29EC               	goto	u3697
  1474  09EE  0BC3               	decfsz	??_main,f
  1475  09EF  29EC               	goto	u3697
  1476  09F0  0000               	nop
  1477                           
  1478                           ;megaonoff.c: 297: TX1REG = '2';_delay((unsigned long)((1)*(16000000/4000.0)));
  1479  09F1  3032               	movlw	50
  1480  09F2  0023               	movlb	3	; select bank3
  1481  09F3  009A               	movwf	26	;volatile
  1482  09F4  3006               	movlw	6
  1483  09F5  0020               	movlb	0	; select bank0
  1484  09F6  00C3               	movwf	??_main
  1485  09F7  3030               	movlw	48
  1486  09F8                     u3707:	
  1487  09F8  0B89               	decfsz	9,f
  1488  09F9  29F8               	goto	u3707
  1489  09FA  0BC3               	decfsz	??_main,f
  1490  09FB  29F8               	goto	u3707
  1491  09FC  0000               	nop
  1492                           
  1493                           ;megaonoff.c: 298: PORTCbits.RC1=0;
  1494  09FD  0020               	movlb	0	; select bank0
  1495  09FE  108E               	bcf	14,1	;volatile
  1496  09FF                     l2468:	
  1497                           
  1498                           ;megaonoff.c: 299: }
  1499                           ;megaonoff.c: 300: man=0;
  1500  09FF  01CB               	clrf	main@man
  1501  0A00  01CC               	clrf	main@man+1
  1502                           
  1503                           ;megaonoff.c: 301: M2=1;
  1504  0A01  3001               	movlw	1
  1505  0A02  00E1               	movwf	_M2
  1506  0A03  3000               	movlw	0
  1507  0A04  00E2               	movwf	_M2+1
  1508  0A05                     l2472:	
  1509                           
  1510                           ;megaonoff.c: 302: }
  1511                           ;megaonoff.c: 304: if(copy_parentalLockBuffer[2] == '0' && RF3 == 1 && M2 == 1)
  1512  0A05  3030               	movlw	48
  1513  0A06  0021               	movlb	1	; select bank1
  1514  0A07  0634               	xorwf	(_copy_parentalLockBuffer^(0+128)+2),w
  1515  0A08  1D03               	btfss	3,2
  1516  0A09  2A55               	goto	l2488
  1517  0A0A  0025               	movlb	5	; select bank5
  1518  0A0B  1D8C               	btfss	12,3	;volatile
  1519  0A0C  2A55               	goto	l2488
  1520  0A0D  0020               	movlb	0	; select bank0
  1521  0A0E  0361               	decf	_M2,w
  1522  0A0F  0462               	iorwf	_M2+1,w
  1523  0A10  1D03               	btfss	3,2
  1524  0A11  2A55               	goto	l2488
  1525                           
  1526                           ;megaonoff.c: 305: {
  1527                           ;megaonoff.c: 306: if(man==1)
  1528  0A12  034B               	decf	main@man,w
  1529  0A13  044C               	iorwf	main@man+1,w
  1530  0A14  1D03               	btfss	3,2
  1531  0A15  2A51               	goto	l2484
  1532                           
  1533                           ;megaonoff.c: 307: {
  1534                           ;megaonoff.c: 308: _delay((unsigned long)((5)*(16000000/4000.0)));
  1535  0A16  301A               	movlw	26
  1536  0A17  0020               	movlb	0	; select bank0
  1537  0A18  00C3               	movwf	??_main
  1538  0A19  30F8               	movlw	248
  1539  0A1A                     u3717:	
  1540  0A1A  0B89               	decfsz	9,f
  1541  0A1B  2A1A               	goto	u3717
  1542  0A1C  0BC3               	decfsz	??_main,f
  1543  0A1D  2A1A               	goto	u3717
  1544  0A1E  0000               	nop
  1545                           
  1546                           ;megaonoff.c: 309: TX1REG = 'R';_delay((unsigned long)((1)*(16000000/4000.0)));
  1547  0A1F  3052               	movlw	82
  1548  0A20  0023               	movlb	3	; select bank3
  1549  0A21  009A               	movwf	26	;volatile
  1550  0A22  3006               	movlw	6
  1551  0A23  0020               	movlb	0	; select bank0
  1552  0A24  00C3               	movwf	??_main
  1553  0A25  3030               	movlw	48
  1554  0A26                     u3727:	
  1555  0A26  0B89               	decfsz	9,f
  1556  0A27  2A26               	goto	u3727
  1557  0A28  0BC3               	decfsz	??_main,f
  1558  0A29  2A26               	goto	u3727
  1559  0A2A  0000               	nop
  1560                           
  1561                           ;megaonoff.c: 310: TX1REG = '1';_delay((unsigned long)((1)*(16000000/4000.0)));
  1562  0A2B  3031               	movlw	49
  1563  0A2C  0023               	movlb	3	; select bank3
  1564  0A2D  009A               	movwf	26	;volatile
  1565  0A2E  3006               	movlw	6
  1566  0A2F  0020               	movlb	0	; select bank0
  1567  0A30  00C3               	movwf	??_main
  1568  0A31  3030               	movlw	48
  1569  0A32                     u3737:	
  1570  0A32  0B89               	decfsz	9,f
  1571  0A33  2A32               	goto	u3737
  1572  0A34  0BC3               	decfsz	??_main,f
  1573  0A35  2A32               	goto	u3737
  1574  0A36  0000               	nop
  1575                           
  1576                           ;megaonoff.c: 311: TX1REG = '0';_delay((unsigned long)((1)*(16000000/4000.0)));
  1577  0A37  3030               	movlw	48
  1578  0A38  0023               	movlb	3	; select bank3
  1579  0A39  009A               	movwf	26	;volatile
  1580  0A3A  3006               	movlw	6
  1581  0A3B  0020               	movlb	0	; select bank0
  1582  0A3C  00C3               	movwf	??_main
  1583  0A3D  3030               	movlw	48
  1584  0A3E                     u3747:	
  1585  0A3E  0B89               	decfsz	9,f
  1586  0A3F  2A3E               	goto	u3747
  1587  0A40  0BC3               	decfsz	??_main,f
  1588  0A41  2A3E               	goto	u3747
  1589  0A42  0000               	nop
  1590                           
  1591                           ;megaonoff.c: 312: TX1REG = '2';_delay((unsigned long)((1)*(16000000/4000.0)));
  1592  0A43  3032               	movlw	50
  1593  0A44  0023               	movlb	3	; select bank3
  1594  0A45  009A               	movwf	26	;volatile
  1595  0A46  3006               	movlw	6
  1596  0A47  0020               	movlb	0	; select bank0
  1597  0A48  00C3               	movwf	??_main
  1598  0A49  3030               	movlw	48
  1599  0A4A                     u3757:	
  1600  0A4A  0B89               	decfsz	9,f
  1601  0A4B  2A4A               	goto	u3757
  1602  0A4C  0BC3               	decfsz	??_main,f
  1603  0A4D  2A4A               	goto	u3757
  1604  0A4E  0000               	nop
  1605                           
  1606                           ;megaonoff.c: 313: PORTCbits.RC1=1;
  1607  0A4F  0020               	movlb	0	; select bank0
  1608  0A50  148E               	bsf	14,1	;volatile
  1609  0A51                     l2484:	
  1610                           
  1611                           ;megaonoff.c: 314: }
  1612                           ;megaonoff.c: 315: man=0;
  1613  0A51  01CB               	clrf	main@man
  1614  0A52  01CC               	clrf	main@man+1
  1615                           
  1616                           ;megaonoff.c: 316: M2=0;
  1617  0A53  01E1               	clrf	_M2
  1618  0A54  01E2               	clrf	_M2+1
  1619  0A55                     l2488:	
  1620                           
  1621                           ;megaonoff.c: 317: }
  1622                           ;megaonoff.c: 322: if(copy_parentalLockBuffer[3] == '0' && RF4 == 0 && M3 == 0)
  1623  0A55  3030               	movlw	48
  1624  0A56  0021               	movlb	1	; select bank1
  1625  0A57  0635               	xorwf	(_copy_parentalLockBuffer^(0+128)+3),w
  1626  0A58  1D03               	btfss	3,2
  1627  0A59  2AA7               	goto	l2504
  1628  0A5A  0025               	movlb	5	; select bank5
  1629  0A5B  1A0C               	btfsc	12,4	;volatile
  1630  0A5C  2AA7               	goto	l2504
  1631  0A5D  0020               	movlb	0	; select bank0
  1632  0A5E  085F               	movf	_M3,w
  1633  0A5F  0460               	iorwf	_M3+1,w
  1634  0A60  1D03               	btfss	3,2
  1635  0A61  2AA7               	goto	l2504
  1636                           
  1637                           ;megaonoff.c: 323: {
  1638                           ;megaonoff.c: 324: if(man == 1)
  1639  0A62  034B               	decf	main@man,w
  1640  0A63  044C               	iorwf	main@man+1,w
  1641  0A64  1D03               	btfss	3,2
  1642  0A65  2AA1               	goto	l2500
  1643                           
  1644                           ;megaonoff.c: 325: {
  1645                           ;megaonoff.c: 326: _delay((unsigned long)((5)*(16000000/4000.0)));
  1646  0A66  301A               	movlw	26
  1647  0A67  0020               	movlb	0	; select bank0
  1648  0A68  00C3               	movwf	??_main
  1649  0A69  30F8               	movlw	248
  1650  0A6A                     u3767:	
  1651  0A6A  0B89               	decfsz	9,f
  1652  0A6B  2A6A               	goto	u3767
  1653  0A6C  0BC3               	decfsz	??_main,f
  1654  0A6D  2A6A               	goto	u3767
  1655  0A6E  0000               	nop
  1656                           
  1657                           ;megaonoff.c: 327: TX1REG = 'R';_delay((unsigned long)((1)*(16000000/4000.0)));
  1658  0A6F  3052               	movlw	82
  1659  0A70  0023               	movlb	3	; select bank3
  1660  0A71  009A               	movwf	26	;volatile
  1661  0A72  3006               	movlw	6
  1662  0A73  0020               	movlb	0	; select bank0
  1663  0A74  00C3               	movwf	??_main
  1664  0A75  3030               	movlw	48
  1665  0A76                     u3777:	
  1666  0A76  0B89               	decfsz	9,f
  1667  0A77  2A76               	goto	u3777
  1668  0A78  0BC3               	decfsz	??_main,f
  1669  0A79  2A76               	goto	u3777
  1670  0A7A  0000               	nop
  1671                           
  1672                           ;megaonoff.c: 328: TX1REG = '0';_delay((unsigned long)((1)*(16000000/4000.0)));
  1673  0A7B  3030               	movlw	48
  1674  0A7C  0023               	movlb	3	; select bank3
  1675  0A7D  009A               	movwf	26	;volatile
  1676  0A7E  3006               	movlw	6
  1677  0A7F  0020               	movlb	0	; select bank0
  1678  0A80  00C3               	movwf	??_main
  1679  0A81  3030               	movlw	48
  1680  0A82                     u3787:	
  1681  0A82  0B89               	decfsz	9,f
  1682  0A83  2A82               	goto	u3787
  1683  0A84  0BC3               	decfsz	??_main,f
  1684  0A85  2A82               	goto	u3787
  1685  0A86  0000               	nop
  1686                           
  1687                           ;megaonoff.c: 329: TX1REG = '0';_delay((unsigned long)((1)*(16000000/4000.0)));
  1688  0A87  3030               	movlw	48
  1689  0A88  0023               	movlb	3	; select bank3
  1690  0A89  009A               	movwf	26	;volatile
  1691  0A8A  3006               	movlw	6
  1692  0A8B  0020               	movlb	0	; select bank0
  1693  0A8C  00C3               	movwf	??_main
  1694  0A8D  3030               	movlw	48
  1695  0A8E                     u3797:	
  1696  0A8E  0B89               	decfsz	9,f
  1697  0A8F  2A8E               	goto	u3797
  1698  0A90  0BC3               	decfsz	??_main,f
  1699  0A91  2A8E               	goto	u3797
  1700  0A92  0000               	nop
  1701                           
  1702                           ;megaonoff.c: 330: TX1REG = '3';_delay((unsigned long)((1)*(16000000/4000.0)));
  1703  0A93  3033               	movlw	51
  1704  0A94  0023               	movlb	3	; select bank3
  1705  0A95  009A               	movwf	26	;volatile
  1706  0A96  3006               	movlw	6
  1707  0A97  0020               	movlb	0	; select bank0
  1708  0A98  00C3               	movwf	??_main
  1709  0A99  3030               	movlw	48
  1710  0A9A                     u3807:	
  1711  0A9A  0B89               	decfsz	9,f
  1712  0A9B  2A9A               	goto	u3807
  1713  0A9C  0BC3               	decfsz	??_main,f
  1714  0A9D  2A9A               	goto	u3807
  1715  0A9E  0000               	nop
  1716                           
  1717                           ;megaonoff.c: 331: PORTAbits.RA0=0;
  1718  0A9F  0020               	movlb	0	; select bank0
  1719  0AA0  100C               	bcf	12,0	;volatile
  1720  0AA1                     l2500:	
  1721                           
  1722                           ;megaonoff.c: 332: }
  1723                           ;megaonoff.c: 333: man=0;
  1724  0AA1  01CB               	clrf	main@man
  1725  0AA2  01CC               	clrf	main@man+1
  1726                           
  1727                           ;megaonoff.c: 334: M3=1;
  1728  0AA3  3001               	movlw	1
  1729  0AA4  00DF               	movwf	_M3
  1730  0AA5  3000               	movlw	0
  1731  0AA6  00E0               	movwf	_M3+1
  1732  0AA7                     l2504:	
  1733                           
  1734                           ;megaonoff.c: 336: }
  1735                           ;megaonoff.c: 338: if(copy_parentalLockBuffer[3] == '0' && RF4 == 1 && M3 == 1)
  1736  0AA7  3030               	movlw	48
  1737  0AA8  0021               	movlb	1	; select bank1
  1738  0AA9  0635               	xorwf	(_copy_parentalLockBuffer^(0+128)+3),w
  1739  0AAA  1D03               	btfss	3,2
  1740  0AAB  2AF7               	goto	l2520
  1741  0AAC  0025               	movlb	5	; select bank5
  1742  0AAD  1E0C               	btfss	12,4	;volatile
  1743  0AAE  2AF7               	goto	l2520
  1744  0AAF  0020               	movlb	0	; select bank0
  1745  0AB0  035F               	decf	_M3,w
  1746  0AB1  0460               	iorwf	_M3+1,w
  1747  0AB2  1D03               	btfss	3,2
  1748  0AB3  2AF7               	goto	l2520
  1749                           
  1750                           ;megaonoff.c: 339: {
  1751                           ;megaonoff.c: 340: if(man==1)
  1752  0AB4  034B               	decf	main@man,w
  1753  0AB5  044C               	iorwf	main@man+1,w
  1754  0AB6  1D03               	btfss	3,2
  1755  0AB7  2AF3               	goto	l2516
  1756                           
  1757                           ;megaonoff.c: 341: {
  1758                           ;megaonoff.c: 342: _delay((unsigned long)((5)*(16000000/4000.0)));
  1759  0AB8  301A               	movlw	26
  1760  0AB9  0020               	movlb	0	; select bank0
  1761  0ABA  00C3               	movwf	??_main
  1762  0ABB  30F8               	movlw	248
  1763  0ABC                     u3817:	
  1764  0ABC  0B89               	decfsz	9,f
  1765  0ABD  2ABC               	goto	u3817
  1766  0ABE  0BC3               	decfsz	??_main,f
  1767  0ABF  2ABC               	goto	u3817
  1768  0AC0  0000               	nop
  1769                           
  1770                           ;megaonoff.c: 343: TX1REG = 'R';_delay((unsigned long)((1)*(16000000/4000.0)));
  1771  0AC1  3052               	movlw	82
  1772  0AC2  0023               	movlb	3	; select bank3
  1773  0AC3  009A               	movwf	26	;volatile
  1774  0AC4  3006               	movlw	6
  1775  0AC5  0020               	movlb	0	; select bank0
  1776  0AC6  00C3               	movwf	??_main
  1777  0AC7  3030               	movlw	48
  1778  0AC8                     u3827:	
  1779  0AC8  0B89               	decfsz	9,f
  1780  0AC9  2AC8               	goto	u3827
  1781  0ACA  0BC3               	decfsz	??_main,f
  1782  0ACB  2AC8               	goto	u3827
  1783  0ACC  0000               	nop
  1784                           
  1785                           ;megaonoff.c: 344: TX1REG = '1';_delay((unsigned long)((1)*(16000000/4000.0)));
  1786  0ACD  3031               	movlw	49
  1787  0ACE  0023               	movlb	3	; select bank3
  1788  0ACF  009A               	movwf	26	;volatile
  1789  0AD0  3006               	movlw	6
  1790  0AD1  0020               	movlb	0	; select bank0
  1791  0AD2  00C3               	movwf	??_main
  1792  0AD3  3030               	movlw	48
  1793  0AD4                     u3837:	
  1794  0AD4  0B89               	decfsz	9,f
  1795  0AD5  2AD4               	goto	u3837
  1796  0AD6  0BC3               	decfsz	??_main,f
  1797  0AD7  2AD4               	goto	u3837
  1798  0AD8  0000               	nop
  1799                           
  1800                           ;megaonoff.c: 345: TX1REG = '0';_delay((unsigned long)((1)*(16000000/4000.0)));
  1801  0AD9  3030               	movlw	48
  1802  0ADA  0023               	movlb	3	; select bank3
  1803  0ADB  009A               	movwf	26	;volatile
  1804  0ADC  3006               	movlw	6
  1805  0ADD  0020               	movlb	0	; select bank0
  1806  0ADE  00C3               	movwf	??_main
  1807  0ADF  3030               	movlw	48
  1808  0AE0                     u3847:	
  1809  0AE0  0B89               	decfsz	9,f
  1810  0AE1  2AE0               	goto	u3847
  1811  0AE2  0BC3               	decfsz	??_main,f
  1812  0AE3  2AE0               	goto	u3847
  1813  0AE4  0000               	nop
  1814                           
  1815                           ;megaonoff.c: 346: TX1REG = '3';_delay((unsigned long)((1)*(16000000/4000.0)));
  1816  0AE5  3033               	movlw	51
  1817  0AE6  0023               	movlb	3	; select bank3
  1818  0AE7  009A               	movwf	26	;volatile
  1819  0AE8  3006               	movlw	6
  1820  0AE9  0020               	movlb	0	; select bank0
  1821  0AEA  00C3               	movwf	??_main
  1822  0AEB  3030               	movlw	48
  1823  0AEC                     u3857:	
  1824  0AEC  0B89               	decfsz	9,f
  1825  0AED  2AEC               	goto	u3857
  1826  0AEE  0BC3               	decfsz	??_main,f
  1827  0AEF  2AEC               	goto	u3857
  1828  0AF0  0000               	nop
  1829                           
  1830                           ;megaonoff.c: 347: PORTAbits.RA0=1;
  1831  0AF1  0020               	movlb	0	; select bank0
  1832  0AF2  140C               	bsf	12,0	;volatile
  1833  0AF3                     l2516:	
  1834                           
  1835                           ;megaonoff.c: 348: }
  1836                           ;megaonoff.c: 349: man=0;
  1837  0AF3  01CB               	clrf	main@man
  1838  0AF4  01CC               	clrf	main@man+1
  1839                           
  1840                           ;megaonoff.c: 350: M3=0;
  1841  0AF5  01DF               	clrf	_M3
  1842  0AF6  01E0               	clrf	_M3+1
  1843  0AF7                     l2520:	
  1844                           
  1845                           ;megaonoff.c: 352: }
  1846                           ;megaonoff.c: 357: if(copy_parentalLockBuffer[4] == '0' && RF5 == 0 && M4 == 0)
  1847  0AF7  3030               	movlw	48
  1848  0AF8  0021               	movlb	1	; select bank1
  1849  0AF9  0636               	xorwf	(_copy_parentalLockBuffer^(0+128)+4),w
  1850  0AFA  1D03               	btfss	3,2
  1851  0AFB  2B4A               	goto	l2536
  1852  0AFC  0025               	movlb	5	; select bank5
  1853  0AFD  1A8C               	btfsc	12,5	;volatile
  1854  0AFE  2B4A               	goto	l2536
  1855  0AFF  0020               	movlb	0	; select bank0
  1856  0B00  085D               	movf	_M4,w
  1857  0B01  045E               	iorwf	_M4+1,w
  1858  0B02  1D03               	btfss	3,2
  1859  0B03  2B4A               	goto	l2536
  1860                           
  1861                           ;megaonoff.c: 358: {
  1862                           ;megaonoff.c: 359: if(man==1)
  1863  0B04  034B               	decf	main@man,w
  1864  0B05  044C               	iorwf	main@man+1,w
  1865  0B06  1D03               	btfss	3,2
  1866  0B07  2B43               	goto	l2532
  1867                           
  1868                           ;megaonoff.c: 360: {
  1869                           ;megaonoff.c: 361: _delay((unsigned long)((5)*(16000000/4000.0)));
  1870  0B08  301A               	movlw	26
  1871  0B09  0020               	movlb	0	; select bank0
  1872  0B0A  00C3               	movwf	??_main
  1873  0B0B  30F8               	movlw	248
  1874  0B0C                     u3867:	
  1875  0B0C  0B89               	decfsz	9,f
  1876  0B0D  2B0C               	goto	u3867
  1877  0B0E  0BC3               	decfsz	??_main,f
  1878  0B0F  2B0C               	goto	u3867
  1879  0B10  0000               	nop
  1880                           
  1881                           ;megaonoff.c: 362: TX1REG = 'R';_delay((unsigned long)((1)*(16000000/4000.0)));
  1882  0B11  3052               	movlw	82
  1883  0B12  0023               	movlb	3	; select bank3
  1884  0B13  009A               	movwf	26	;volatile
  1885  0B14  3006               	movlw	6
  1886  0B15  0020               	movlb	0	; select bank0
  1887  0B16  00C3               	movwf	??_main
  1888  0B17  3030               	movlw	48
  1889  0B18                     u3877:	
  1890  0B18  0B89               	decfsz	9,f
  1891  0B19  2B18               	goto	u3877
  1892  0B1A  0BC3               	decfsz	??_main,f
  1893  0B1B  2B18               	goto	u3877
  1894  0B1C  0000               	nop
  1895                           
  1896                           ;megaonoff.c: 363: TX1REG = '0';_delay((unsigned long)((1)*(16000000/4000.0)));
  1897  0B1D  3030               	movlw	48
  1898  0B1E  0023               	movlb	3	; select bank3
  1899  0B1F  009A               	movwf	26	;volatile
  1900  0B20  3006               	movlw	6
  1901  0B21  0020               	movlb	0	; select bank0
  1902  0B22  00C3               	movwf	??_main
  1903  0B23  3030               	movlw	48
  1904  0B24                     u3887:	
  1905  0B24  0B89               	decfsz	9,f
  1906  0B25  2B24               	goto	u3887
  1907  0B26  0BC3               	decfsz	??_main,f
  1908  0B27  2B24               	goto	u3887
  1909  0B28  0000               	nop
  1910                           
  1911                           ;megaonoff.c: 364: TX1REG = '0';_delay((unsigned long)((1)*(16000000/4000.0)));
  1912  0B29  3030               	movlw	48
  1913  0B2A  0023               	movlb	3	; select bank3
  1914  0B2B  009A               	movwf	26	;volatile
  1915  0B2C  3006               	movlw	6
  1916  0B2D  0020               	movlb	0	; select bank0
  1917  0B2E  00C3               	movwf	??_main
  1918  0B2F  3030               	movlw	48
  1919  0B30                     u3897:	
  1920  0B30  0B89               	decfsz	9,f
  1921  0B31  2B30               	goto	u3897
  1922  0B32  0BC3               	decfsz	??_main,f
  1923  0B33  2B30               	goto	u3897
  1924  0B34  0000               	nop
  1925                           
  1926                           ;megaonoff.c: 365: TX1REG = '4';_delay((unsigned long)((1)*(16000000/4000.0)));
  1927  0B35  3034               	movlw	52
  1928  0B36  0023               	movlb	3	; select bank3
  1929  0B37  009A               	movwf	26	;volatile
  1930  0B38  3006               	movlw	6
  1931  0B39  0020               	movlb	0	; select bank0
  1932  0B3A  00C3               	movwf	??_main
  1933  0B3B  3030               	movlw	48
  1934  0B3C                     u3907:	
  1935  0B3C  0B89               	decfsz	9,f
  1936  0B3D  2B3C               	goto	u3907
  1937  0B3E  0BC3               	decfsz	??_main,f
  1938  0B3F  2B3C               	goto	u3907
  1939  0B40  0000               	nop
  1940                           
  1941                           ;megaonoff.c: 366: PORTFbits.RF1=0;
  1942  0B41  0025               	movlb	5	; select bank5
  1943  0B42  108C               	bcf	12,1	;volatile
  1944  0B43                     l2532:	
  1945                           
  1946                           ;megaonoff.c: 367: }
  1947                           ;megaonoff.c: 368: man=0;
  1948  0B43  0020               	movlb	0	; select bank0
  1949  0B44  01CB               	clrf	main@man
  1950  0B45  01CC               	clrf	main@man+1
  1951                           
  1952                           ;megaonoff.c: 369: M4=1;
  1953  0B46  3001               	movlw	1
  1954  0B47  00DD               	movwf	_M4
  1955  0B48  3000               	movlw	0
  1956  0B49  00DE               	movwf	_M4+1
  1957  0B4A                     l2536:	
  1958                           
  1959                           ;megaonoff.c: 371: }
  1960                           ;megaonoff.c: 373: if(copy_parentalLockBuffer[4] == '0' && RF5 == 1 && M4 == 1)
  1961  0B4A  3030               	movlw	48
  1962  0B4B  0021               	movlb	1	; select bank1
  1963  0B4C  0636               	xorwf	(_copy_parentalLockBuffer^(0+128)+4),w
  1964  0B4D  1D03               	btfss	3,2
  1965  0B4E  2B9B               	goto	l2552
  1966  0B4F  0025               	movlb	5	; select bank5
  1967  0B50  1E8C               	btfss	12,5	;volatile
  1968  0B51  2B9B               	goto	l2552
  1969  0B52  0020               	movlb	0	; select bank0
  1970  0B53  035D               	decf	_M4,w
  1971  0B54  045E               	iorwf	_M4+1,w
  1972  0B55  1D03               	btfss	3,2
  1973  0B56  2B9B               	goto	l2552
  1974                           
  1975                           ;megaonoff.c: 374: {
  1976                           ;megaonoff.c: 375: if(man==1)
  1977  0B57  034B               	decf	main@man,w
  1978  0B58  044C               	iorwf	main@man+1,w
  1979  0B59  1D03               	btfss	3,2
  1980  0B5A  2B96               	goto	l2548
  1981                           
  1982                           ;megaonoff.c: 376: {
  1983                           ;megaonoff.c: 377: _delay((unsigned long)((5)*(16000000/4000.0)));
  1984  0B5B  301A               	movlw	26
  1985  0B5C  0020               	movlb	0	; select bank0
  1986  0B5D  00C3               	movwf	??_main
  1987  0B5E  30F8               	movlw	248
  1988  0B5F                     u3917:	
  1989  0B5F  0B89               	decfsz	9,f
  1990  0B60  2B5F               	goto	u3917
  1991  0B61  0BC3               	decfsz	??_main,f
  1992  0B62  2B5F               	goto	u3917
  1993  0B63  0000               	nop
  1994                           
  1995                           ;megaonoff.c: 378: TX1REG = 'R';_delay((unsigned long)((1)*(16000000/4000.0)));
  1996  0B64  3052               	movlw	82
  1997  0B65  0023               	movlb	3	; select bank3
  1998  0B66  009A               	movwf	26	;volatile
  1999  0B67  3006               	movlw	6
  2000  0B68  0020               	movlb	0	; select bank0
  2001  0B69  00C3               	movwf	??_main
  2002  0B6A  3030               	movlw	48
  2003  0B6B                     u3927:	
  2004  0B6B  0B89               	decfsz	9,f
  2005  0B6C  2B6B               	goto	u3927
  2006  0B6D  0BC3               	decfsz	??_main,f
  2007  0B6E  2B6B               	goto	u3927
  2008  0B6F  0000               	nop
  2009                           
  2010                           ;megaonoff.c: 379: TX1REG = '1';_delay((unsigned long)((1)*(16000000/4000.0)));
  2011  0B70  3031               	movlw	49
  2012  0B71  0023               	movlb	3	; select bank3
  2013  0B72  009A               	movwf	26	;volatile
  2014  0B73  3006               	movlw	6
  2015  0B74  0020               	movlb	0	; select bank0
  2016  0B75  00C3               	movwf	??_main
  2017  0B76  3030               	movlw	48
  2018  0B77                     u3937:	
  2019  0B77  0B89               	decfsz	9,f
  2020  0B78  2B77               	goto	u3937
  2021  0B79  0BC3               	decfsz	??_main,f
  2022  0B7A  2B77               	goto	u3937
  2023  0B7B  0000               	nop
  2024                           
  2025                           ;megaonoff.c: 380: TX1REG = '0';_delay((unsigned long)((1)*(16000000/4000.0)));
  2026  0B7C  3030               	movlw	48
  2027  0B7D  0023               	movlb	3	; select bank3
  2028  0B7E  009A               	movwf	26	;volatile
  2029  0B7F  3006               	movlw	6
  2030  0B80  0020               	movlb	0	; select bank0
  2031  0B81  00C3               	movwf	??_main
  2032  0B82  3030               	movlw	48
  2033  0B83                     u3947:	
  2034  0B83  0B89               	decfsz	9,f
  2035  0B84  2B83               	goto	u3947
  2036  0B85  0BC3               	decfsz	??_main,f
  2037  0B86  2B83               	goto	u3947
  2038  0B87  0000               	nop
  2039                           
  2040                           ;megaonoff.c: 381: TX1REG = '4';_delay((unsigned long)((1)*(16000000/4000.0)));
  2041  0B88  3034               	movlw	52
  2042  0B89  0023               	movlb	3	; select bank3
  2043  0B8A  009A               	movwf	26	;volatile
  2044  0B8B  3006               	movlw	6
  2045  0B8C  0020               	movlb	0	; select bank0
  2046  0B8D  00C3               	movwf	??_main
  2047  0B8E  3030               	movlw	48
  2048  0B8F                     u3957:	
  2049  0B8F  0B89               	decfsz	9,f
  2050  0B90  2B8F               	goto	u3957
  2051  0B91  0BC3               	decfsz	??_main,f
  2052  0B92  2B8F               	goto	u3957
  2053  0B93  0000               	nop
  2054                           
  2055                           ;megaonoff.c: 382: PORTFbits.RF1=1;
  2056  0B94  0025               	movlb	5	; select bank5
  2057  0B95  148C               	bsf	12,1	;volatile
  2058  0B96                     l2548:	
  2059                           
  2060                           ;megaonoff.c: 383: }
  2061                           ;megaonoff.c: 384: man=0;
  2062  0B96  0020               	movlb	0	; select bank0
  2063  0B97  01CB               	clrf	main@man
  2064  0B98  01CC               	clrf	main@man+1
  2065                           
  2066                           ;megaonoff.c: 385: M4=0;
  2067  0B99  01DD               	clrf	_M4
  2068  0B9A  01DE               	clrf	_M4+1
  2069  0B9B                     l2552:	
  2070                           
  2071                           ;megaonoff.c: 387: }
  2072                           ;megaonoff.c: 389: if(copy_parentalLockBuffer[5] == '0' && RF6 == 0 && M5 == 0)
  2073  0B9B  3030               	movlw	48
  2074  0B9C  0021               	movlb	1	; select bank1
  2075  0B9D  0637               	xorwf	(_copy_parentalLockBuffer^(0+128)+5),w
  2076  0B9E  1D03               	btfss	3,2
  2077  0B9F  2BED               	goto	l2568
  2078  0BA0  0025               	movlb	5	; select bank5
  2079  0BA1  1B0C               	btfsc	12,6	;volatile
  2080  0BA2  2BED               	goto	l2568
  2081  0BA3  0020               	movlb	0	; select bank0
  2082  0BA4  085B               	movf	_M5,w
  2083  0BA5  045C               	iorwf	_M5+1,w
  2084  0BA6  1D03               	btfss	3,2
  2085  0BA7  2BED               	goto	l2568
  2086                           
  2087                           ;megaonoff.c: 390: {
  2088                           ;megaonoff.c: 391: if(man==1)
  2089  0BA8  034B               	decf	main@man,w
  2090  0BA9  044C               	iorwf	main@man+1,w
  2091  0BAA  1D03               	btfss	3,2
  2092  0BAB  2BE7               	goto	l2564
  2093                           
  2094                           ;megaonoff.c: 392: {
  2095                           ;megaonoff.c: 393: _delay((unsigned long)((5)*(16000000/4000.0)));
  2096  0BAC  301A               	movlw	26
  2097  0BAD  0020               	movlb	0	; select bank0
  2098  0BAE  00C3               	movwf	??_main
  2099  0BAF  30F8               	movlw	248
  2100  0BB0                     u3967:	
  2101  0BB0  0B89               	decfsz	9,f
  2102  0BB1  2BB0               	goto	u3967
  2103  0BB2  0BC3               	decfsz	??_main,f
  2104  0BB3  2BB0               	goto	u3967
  2105  0BB4  0000               	nop
  2106                           
  2107                           ;megaonoff.c: 394: TX1REG = 'R';_delay((unsigned long)((1)*(16000000/4000.0)));
  2108  0BB5  3052               	movlw	82
  2109  0BB6  0023               	movlb	3	; select bank3
  2110  0BB7  009A               	movwf	26	;volatile
  2111  0BB8  3006               	movlw	6
  2112  0BB9  0020               	movlb	0	; select bank0
  2113  0BBA  00C3               	movwf	??_main
  2114  0BBB  3030               	movlw	48
  2115  0BBC                     u3977:	
  2116  0BBC  0B89               	decfsz	9,f
  2117  0BBD  2BBC               	goto	u3977
  2118  0BBE  0BC3               	decfsz	??_main,f
  2119  0BBF  2BBC               	goto	u3977
  2120  0BC0  0000               	nop
  2121                           
  2122                           ;megaonoff.c: 395: TX1REG = '0';_delay((unsigned long)((1)*(16000000/4000.0)));
  2123  0BC1  3030               	movlw	48
  2124  0BC2  0023               	movlb	3	; select bank3
  2125  0BC3  009A               	movwf	26	;volatile
  2126  0BC4  3006               	movlw	6
  2127  0BC5  0020               	movlb	0	; select bank0
  2128  0BC6  00C3               	movwf	??_main
  2129  0BC7  3030               	movlw	48
  2130  0BC8                     u3987:	
  2131  0BC8  0B89               	decfsz	9,f
  2132  0BC9  2BC8               	goto	u3987
  2133  0BCA  0BC3               	decfsz	??_main,f
  2134  0BCB  2BC8               	goto	u3987
  2135  0BCC  0000               	nop
  2136                           
  2137                           ;megaonoff.c: 396: TX1REG = '0';_delay((unsigned long)((1)*(16000000/4000.0)));
  2138  0BCD  3030               	movlw	48
  2139  0BCE  0023               	movlb	3	; select bank3
  2140  0BCF  009A               	movwf	26	;volatile
  2141  0BD0  3006               	movlw	6
  2142  0BD1  0020               	movlb	0	; select bank0
  2143  0BD2  00C3               	movwf	??_main
  2144  0BD3  3030               	movlw	48
  2145  0BD4                     u3997:	
  2146  0BD4  0B89               	decfsz	9,f
  2147  0BD5  2BD4               	goto	u3997
  2148  0BD6  0BC3               	decfsz	??_main,f
  2149  0BD7  2BD4               	goto	u3997
  2150  0BD8  0000               	nop
  2151                           
  2152                           ;megaonoff.c: 397: TX1REG = '5';_delay((unsigned long)((1)*(16000000/4000.0)));
  2153  0BD9  3035               	movlw	53
  2154  0BDA  0023               	movlb	3	; select bank3
  2155  0BDB  009A               	movwf	26	;volatile
  2156  0BDC  3006               	movlw	6
  2157  0BDD  0020               	movlb	0	; select bank0
  2158  0BDE  00C3               	movwf	??_main
  2159  0BDF  3030               	movlw	48
  2160  0BE0                     u4007:	
  2161  0BE0  0B89               	decfsz	9,f
  2162  0BE1  2BE0               	goto	u4007
  2163  0BE2  0BC3               	decfsz	??_main,f
  2164  0BE3  2BE0               	goto	u4007
  2165  0BE4  0000               	nop
  2166                           
  2167                           ;megaonoff.c: 398: PORTAbits.RA3=0;
  2168  0BE5  0020               	movlb	0	; select bank0
  2169  0BE6  118C               	bcf	12,3	;volatile
  2170  0BE7                     l2564:	
  2171                           
  2172                           ;megaonoff.c: 399: }
  2173                           ;megaonoff.c: 400: man=0;
  2174  0BE7  01CB               	clrf	main@man
  2175  0BE8  01CC               	clrf	main@man+1
  2176                           
  2177                           ;megaonoff.c: 401: M5=1;
  2178  0BE9  3001               	movlw	1
  2179  0BEA  00DB               	movwf	_M5
  2180  0BEB  3000               	movlw	0
  2181  0BEC  00DC               	movwf	_M5+1
  2182  0BED                     l2568:	
  2183                           
  2184                           ;megaonoff.c: 403: }
  2185                           ;megaonoff.c: 405: if(copy_parentalLockBuffer[5] == '0' && RF6 == 1 && M5 == 1)
  2186  0BED  3030               	movlw	48
  2187  0BEE  0021               	movlb	1	; select bank1
  2188  0BEF  0637               	xorwf	(_copy_parentalLockBuffer^(0+128)+5),w
  2189  0BF0  1D03               	btfss	3,2
  2190  0BF1  2C3D               	goto	l2584
  2191  0BF2  0025               	movlb	5	; select bank5
  2192  0BF3  1F0C               	btfss	12,6	;volatile
  2193  0BF4  2C3D               	goto	l2584
  2194  0BF5  0020               	movlb	0	; select bank0
  2195  0BF6  035B               	decf	_M5,w
  2196  0BF7  045C               	iorwf	_M5+1,w
  2197  0BF8  1D03               	btfss	3,2
  2198  0BF9  2C3D               	goto	l2584
  2199                           
  2200                           ;megaonoff.c: 406: {
  2201                           ;megaonoff.c: 407: if(man==1)
  2202  0BFA  034B               	decf	main@man,w
  2203  0BFB  044C               	iorwf	main@man+1,w
  2204  0BFC  1D03               	btfss	3,2
  2205  0BFD  2C39               	goto	l2580
  2206                           
  2207                           ;megaonoff.c: 408: {
  2208                           ;megaonoff.c: 409: _delay((unsigned long)((5)*(16000000/4000.0)));
  2209  0BFE  301A               	movlw	26
  2210  0BFF  0020               	movlb	0	; select bank0
  2211  0C00  00C3               	movwf	??_main
  2212  0C01  30F8               	movlw	248
  2213  0C02                     u4017:	
  2214  0C02  0B89               	decfsz	9,f
  2215  0C03  2C02               	goto	u4017
  2216  0C04  0BC3               	decfsz	??_main,f
  2217  0C05  2C02               	goto	u4017
  2218  0C06  0000               	nop
  2219                           
  2220                           ;megaonoff.c: 410: TX1REG = 'R';_delay((unsigned long)((1)*(16000000/4000.0)));
  2221  0C07  3052               	movlw	82
  2222  0C08  0023               	movlb	3	; select bank3
  2223  0C09  009A               	movwf	26	;volatile
  2224  0C0A  3006               	movlw	6
  2225  0C0B  0020               	movlb	0	; select bank0
  2226  0C0C  00C3               	movwf	??_main
  2227  0C0D  3030               	movlw	48
  2228  0C0E                     u4027:	
  2229  0C0E  0B89               	decfsz	9,f
  2230  0C0F  2C0E               	goto	u4027
  2231  0C10  0BC3               	decfsz	??_main,f
  2232  0C11  2C0E               	goto	u4027
  2233  0C12  0000               	nop
  2234                           
  2235                           ;megaonoff.c: 411: TX1REG = '1';_delay((unsigned long)((1)*(16000000/4000.0)));
  2236  0C13  3031               	movlw	49
  2237  0C14  0023               	movlb	3	; select bank3
  2238  0C15  009A               	movwf	26	;volatile
  2239  0C16  3006               	movlw	6
  2240  0C17  0020               	movlb	0	; select bank0
  2241  0C18  00C3               	movwf	??_main
  2242  0C19  3030               	movlw	48
  2243  0C1A                     u4037:	
  2244  0C1A  0B89               	decfsz	9,f
  2245  0C1B  2C1A               	goto	u4037
  2246  0C1C  0BC3               	decfsz	??_main,f
  2247  0C1D  2C1A               	goto	u4037
  2248  0C1E  0000               	nop
  2249                           
  2250                           ;megaonoff.c: 412: TX1REG = '0';_delay((unsigned long)((1)*(16000000/4000.0)));
  2251  0C1F  3030               	movlw	48
  2252  0C20  0023               	movlb	3	; select bank3
  2253  0C21  009A               	movwf	26	;volatile
  2254  0C22  3006               	movlw	6
  2255  0C23  0020               	movlb	0	; select bank0
  2256  0C24  00C3               	movwf	??_main
  2257  0C25  3030               	movlw	48
  2258  0C26                     u4047:	
  2259  0C26  0B89               	decfsz	9,f
  2260  0C27  2C26               	goto	u4047
  2261  0C28  0BC3               	decfsz	??_main,f
  2262  0C29  2C26               	goto	u4047
  2263  0C2A  0000               	nop
  2264                           
  2265                           ;megaonoff.c: 413: TX1REG = '5';_delay((unsigned long)((1)*(16000000/4000.0)));
  2266  0C2B  3035               	movlw	53
  2267  0C2C  0023               	movlb	3	; select bank3
  2268  0C2D  009A               	movwf	26	;volatile
  2269  0C2E  3006               	movlw	6
  2270  0C2F  0020               	movlb	0	; select bank0
  2271  0C30  00C3               	movwf	??_main
  2272  0C31  3030               	movlw	48
  2273  0C32                     u4057:	
  2274  0C32  0B89               	decfsz	9,f
  2275  0C33  2C32               	goto	u4057
  2276  0C34  0BC3               	decfsz	??_main,f
  2277  0C35  2C32               	goto	u4057
  2278  0C36  0000               	nop
  2279                           
  2280                           ;megaonoff.c: 414: PORTAbits.RA3=1;
  2281  0C37  0020               	movlb	0	; select bank0
  2282  0C38  158C               	bsf	12,3	;volatile
  2283  0C39                     l2580:	
  2284                           
  2285                           ;megaonoff.c: 415: }
  2286                           ;megaonoff.c: 416: man=0;
  2287  0C39  01CB               	clrf	main@man
  2288  0C3A  01CC               	clrf	main@man+1
  2289                           
  2290                           ;megaonoff.c: 417: M5=0;
  2291  0C3B  01DB               	clrf	_M5
  2292  0C3C  01DC               	clrf	_M5+1
  2293  0C3D                     l2584:	
  2294                           
  2295                           ;megaonoff.c: 419: }
  2296                           ;megaonoff.c: 422: if(copy_parentalLockBuffer[6] == '0' && RD7 == 0 && M6 == 0)
  2297  0C3D  3030               	movlw	48
  2298  0C3E  0021               	movlb	1	; select bank1
  2299  0C3F  0638               	xorwf	(_copy_parentalLockBuffer^(0+128)+6),w
  2300  0C40  1D03               	btfss	3,2
  2301  0C41  2C8E               	goto	l2600
  2302  0C42  0020               	movlb	0	; select bank0
  2303  0C43  1B8F               	btfsc	15,7	;volatile
  2304  0C44  2C8E               	goto	l2600
  2305  0C45  0859               	movf	_M6,w
  2306  0C46  045A               	iorwf	_M6+1,w
  2307  0C47  1D03               	btfss	3,2
  2308  0C48  2C8E               	goto	l2600
  2309                           
  2310                           ;megaonoff.c: 423: {
  2311                           ;megaonoff.c: 424: if(man==1)
  2312  0C49  034B               	decf	main@man,w
  2313  0C4A  044C               	iorwf	main@man+1,w
  2314  0C4B  1D03               	btfss	3,2
  2315  0C4C  2C88               	goto	l2596
  2316                           
  2317                           ;megaonoff.c: 425: {
  2318                           ;megaonoff.c: 426: _delay((unsigned long)((5)*(16000000/4000.0)));
  2319  0C4D  301A               	movlw	26
  2320  0C4E  0020               	movlb	0	; select bank0
  2321  0C4F  00C3               	movwf	??_main
  2322  0C50  30F8               	movlw	248
  2323  0C51                     u4067:	
  2324  0C51  0B89               	decfsz	9,f
  2325  0C52  2C51               	goto	u4067
  2326  0C53  0BC3               	decfsz	??_main,f
  2327  0C54  2C51               	goto	u4067
  2328  0C55  0000               	nop
  2329                           
  2330                           ;megaonoff.c: 427: TX1REG = 'R';_delay((unsigned long)((1)*(16000000/4000.0)));
  2331  0C56  3052               	movlw	82
  2332  0C57  0023               	movlb	3	; select bank3
  2333  0C58  009A               	movwf	26	;volatile
  2334  0C59  3006               	movlw	6
  2335  0C5A  0020               	movlb	0	; select bank0
  2336  0C5B  00C3               	movwf	??_main
  2337  0C5C  3030               	movlw	48
  2338  0C5D                     u4077:	
  2339  0C5D  0B89               	decfsz	9,f
  2340  0C5E  2C5D               	goto	u4077
  2341  0C5F  0BC3               	decfsz	??_main,f
  2342  0C60  2C5D               	goto	u4077
  2343  0C61  0000               	nop
  2344                           
  2345                           ;megaonoff.c: 428: TX1REG = '0';_delay((unsigned long)((1)*(16000000/4000.0)));
  2346  0C62  3030               	movlw	48
  2347  0C63  0023               	movlb	3	; select bank3
  2348  0C64  009A               	movwf	26	;volatile
  2349  0C65  3006               	movlw	6
  2350  0C66  0020               	movlb	0	; select bank0
  2351  0C67  00C3               	movwf	??_main
  2352  0C68  3030               	movlw	48
  2353  0C69                     u4087:	
  2354  0C69  0B89               	decfsz	9,f
  2355  0C6A  2C69               	goto	u4087
  2356  0C6B  0BC3               	decfsz	??_main,f
  2357  0C6C  2C69               	goto	u4087
  2358  0C6D  0000               	nop
  2359                           
  2360                           ;megaonoff.c: 429: TX1REG = '0';_delay((unsigned long)((1)*(16000000/4000.0)));
  2361  0C6E  3030               	movlw	48
  2362  0C6F  0023               	movlb	3	; select bank3
  2363  0C70  009A               	movwf	26	;volatile
  2364  0C71  3006               	movlw	6
  2365  0C72  0020               	movlb	0	; select bank0
  2366  0C73  00C3               	movwf	??_main
  2367  0C74  3030               	movlw	48
  2368  0C75                     u4097:	
  2369  0C75  0B89               	decfsz	9,f
  2370  0C76  2C75               	goto	u4097
  2371  0C77  0BC3               	decfsz	??_main,f
  2372  0C78  2C75               	goto	u4097
  2373  0C79  0000               	nop
  2374                           
  2375                           ;megaonoff.c: 430: TX1REG = '6';_delay((unsigned long)((1)*(16000000/4000.0)));
  2376  0C7A  3036               	movlw	54
  2377  0C7B  0023               	movlb	3	; select bank3
  2378  0C7C  009A               	movwf	26	;volatile
  2379  0C7D  3006               	movlw	6
  2380  0C7E  0020               	movlb	0	; select bank0
  2381  0C7F  00C3               	movwf	??_main
  2382  0C80  3030               	movlw	48
  2383  0C81                     u4107:	
  2384  0C81  0B89               	decfsz	9,f
  2385  0C82  2C81               	goto	u4107
  2386  0C83  0BC3               	decfsz	??_main,f
  2387  0C84  2C81               	goto	u4107
  2388  0C85  0000               	nop
  2389                           
  2390                           ;megaonoff.c: 431: PORTAbits.RA1=0;
  2391  0C86  0020               	movlb	0	; select bank0
  2392  0C87  108C               	bcf	12,1	;volatile
  2393  0C88                     l2596:	
  2394                           
  2395                           ;megaonoff.c: 432: }
  2396                           ;megaonoff.c: 433: man=0;
  2397  0C88  01CB               	clrf	main@man
  2398  0C89  01CC               	clrf	main@man+1
  2399                           
  2400                           ;megaonoff.c: 434: M6=1;
  2401  0C8A  3001               	movlw	1
  2402  0C8B  00D9               	movwf	_M6
  2403  0C8C  3000               	movlw	0
  2404  0C8D  00DA               	movwf	_M6+1
  2405  0C8E                     l2600:	
  2406                           
  2407                           ;megaonoff.c: 436: }
  2408                           ;megaonoff.c: 438: if(copy_parentalLockBuffer[6] == '0' && RD7 == 1 && M6 == 1)
  2409  0C8E  3030               	movlw	48
  2410  0C8F  0021               	movlb	1	; select bank1
  2411  0C90  0638               	xorwf	(_copy_parentalLockBuffer^(0+128)+6),w
  2412  0C91  1D03               	btfss	3,2
  2413  0C92  2CDD               	goto	l2616
  2414  0C93  0020               	movlb	0	; select bank0
  2415  0C94  1F8F               	btfss	15,7	;volatile
  2416  0C95  2CDD               	goto	l2616
  2417  0C96  0359               	decf	_M6,w
  2418  0C97  045A               	iorwf	_M6+1,w
  2419  0C98  1D03               	btfss	3,2
  2420  0C99  2CDD               	goto	l2616
  2421                           
  2422                           ;megaonoff.c: 439: {
  2423                           ;megaonoff.c: 440: if(man==1)
  2424  0C9A  034B               	decf	main@man,w
  2425  0C9B  044C               	iorwf	main@man+1,w
  2426  0C9C  1D03               	btfss	3,2
  2427  0C9D  2CD9               	goto	l2612
  2428                           
  2429                           ;megaonoff.c: 441: {
  2430                           ;megaonoff.c: 442: _delay((unsigned long)((5)*(16000000/4000.0)));
  2431  0C9E  301A               	movlw	26
  2432  0C9F  0020               	movlb	0	; select bank0
  2433  0CA0  00C3               	movwf	??_main
  2434  0CA1  30F8               	movlw	248
  2435  0CA2                     u4117:	
  2436  0CA2  0B89               	decfsz	9,f
  2437  0CA3  2CA2               	goto	u4117
  2438  0CA4  0BC3               	decfsz	??_main,f
  2439  0CA5  2CA2               	goto	u4117
  2440  0CA6  0000               	nop
  2441                           
  2442                           ;megaonoff.c: 443: TX1REG = 'R';_delay((unsigned long)((1)*(16000000/4000.0)));
  2443  0CA7  3052               	movlw	82
  2444  0CA8  0023               	movlb	3	; select bank3
  2445  0CA9  009A               	movwf	26	;volatile
  2446  0CAA  3006               	movlw	6
  2447  0CAB  0020               	movlb	0	; select bank0
  2448  0CAC  00C3               	movwf	??_main
  2449  0CAD  3030               	movlw	48
  2450  0CAE                     u4127:	
  2451  0CAE  0B89               	decfsz	9,f
  2452  0CAF  2CAE               	goto	u4127
  2453  0CB0  0BC3               	decfsz	??_main,f
  2454  0CB1  2CAE               	goto	u4127
  2455  0CB2  0000               	nop
  2456                           
  2457                           ;megaonoff.c: 444: TX1REG = '1';_delay((unsigned long)((1)*(16000000/4000.0)));
  2458  0CB3  3031               	movlw	49
  2459  0CB4  0023               	movlb	3	; select bank3
  2460  0CB5  009A               	movwf	26	;volatile
  2461  0CB6  3006               	movlw	6
  2462  0CB7  0020               	movlb	0	; select bank0
  2463  0CB8  00C3               	movwf	??_main
  2464  0CB9  3030               	movlw	48
  2465  0CBA                     u4137:	
  2466  0CBA  0B89               	decfsz	9,f
  2467  0CBB  2CBA               	goto	u4137
  2468  0CBC  0BC3               	decfsz	??_main,f
  2469  0CBD  2CBA               	goto	u4137
  2470  0CBE  0000               	nop
  2471                           
  2472                           ;megaonoff.c: 445: TX1REG = '0';_delay((unsigned long)((1)*(16000000/4000.0)));
  2473  0CBF  3030               	movlw	48
  2474  0CC0  0023               	movlb	3	; select bank3
  2475  0CC1  009A               	movwf	26	;volatile
  2476  0CC2  3006               	movlw	6
  2477  0CC3  0020               	movlb	0	; select bank0
  2478  0CC4  00C3               	movwf	??_main
  2479  0CC5  3030               	movlw	48
  2480  0CC6                     u4147:	
  2481  0CC6  0B89               	decfsz	9,f
  2482  0CC7  2CC6               	goto	u4147
  2483  0CC8  0BC3               	decfsz	??_main,f
  2484  0CC9  2CC6               	goto	u4147
  2485  0CCA  0000               	nop
  2486                           
  2487                           ;megaonoff.c: 446: TX1REG = '6';_delay((unsigned long)((1)*(16000000/4000.0)));
  2488  0CCB  3036               	movlw	54
  2489  0CCC  0023               	movlb	3	; select bank3
  2490  0CCD  009A               	movwf	26	;volatile
  2491  0CCE  3006               	movlw	6
  2492  0CCF  0020               	movlb	0	; select bank0
  2493  0CD0  00C3               	movwf	??_main
  2494  0CD1  3030               	movlw	48
  2495  0CD2                     u4157:	
  2496  0CD2  0B89               	decfsz	9,f
  2497  0CD3  2CD2               	goto	u4157
  2498  0CD4  0BC3               	decfsz	??_main,f
  2499  0CD5  2CD2               	goto	u4157
  2500  0CD6  0000               	nop
  2501                           
  2502                           ;megaonoff.c: 447: PORTAbits.RA1=1;
  2503  0CD7  0020               	movlb	0	; select bank0
  2504  0CD8  148C               	bsf	12,1	;volatile
  2505  0CD9                     l2612:	
  2506                           
  2507                           ;megaonoff.c: 448: }
  2508                           ;megaonoff.c: 449: man=0;
  2509  0CD9  01CB               	clrf	main@man
  2510  0CDA  01CC               	clrf	main@man+1
  2511                           
  2512                           ;megaonoff.c: 450: M6=0;
  2513  0CDB  01D9               	clrf	_M6
  2514  0CDC  01DA               	clrf	_M6+1
  2515  0CDD                     l2616:	
  2516                           
  2517                           ;megaonoff.c: 452: }
  2518                           ;megaonoff.c: 456: if(copy_parentalLockBuffer[7] == '0' && RD6 == 0 && M7 == 0)
  2519  0CDD  3030               	movlw	48
  2520  0CDE  0021               	movlb	1	; select bank1
  2521  0CDF  0639               	xorwf	(_copy_parentalLockBuffer^(0+128)+7),w
  2522  0CE0  1D03               	btfss	3,2
  2523  0CE1  2D2E               	goto	l2632
  2524  0CE2  0020               	movlb	0	; select bank0
  2525  0CE3  1B0F               	btfsc	15,6	;volatile
  2526  0CE4  2D2E               	goto	l2632
  2527  0CE5  0857               	movf	_M7,w
  2528  0CE6  0458               	iorwf	_M7+1,w
  2529  0CE7  1D03               	btfss	3,2
  2530  0CE8  2D2E               	goto	l2632
  2531                           
  2532                           ;megaonoff.c: 457: {
  2533                           ;megaonoff.c: 458: if(man==1)
  2534  0CE9  034B               	decf	main@man,w
  2535  0CEA  044C               	iorwf	main@man+1,w
  2536  0CEB  1D03               	btfss	3,2
  2537  0CEC  2D28               	goto	l2628
  2538                           
  2539                           ;megaonoff.c: 459: {
  2540                           ;megaonoff.c: 460: _delay((unsigned long)((5)*(16000000/4000.0)));
  2541  0CED  301A               	movlw	26
  2542  0CEE  0020               	movlb	0	; select bank0
  2543  0CEF  00C3               	movwf	??_main
  2544  0CF0  30F8               	movlw	248
  2545  0CF1                     u4167:	
  2546  0CF1  0B89               	decfsz	9,f
  2547  0CF2  2CF1               	goto	u4167
  2548  0CF3  0BC3               	decfsz	??_main,f
  2549  0CF4  2CF1               	goto	u4167
  2550  0CF5  0000               	nop
  2551                           
  2552                           ;megaonoff.c: 461: TX1REG = 'R';_delay((unsigned long)((1)*(16000000/4000.0)));
  2553  0CF6  3052               	movlw	82
  2554  0CF7  0023               	movlb	3	; select bank3
  2555  0CF8  009A               	movwf	26	;volatile
  2556  0CF9  3006               	movlw	6
  2557  0CFA  0020               	movlb	0	; select bank0
  2558  0CFB  00C3               	movwf	??_main
  2559  0CFC  3030               	movlw	48
  2560  0CFD                     u4177:	
  2561  0CFD  0B89               	decfsz	9,f
  2562  0CFE  2CFD               	goto	u4177
  2563  0CFF  0BC3               	decfsz	??_main,f
  2564  0D00  2CFD               	goto	u4177
  2565  0D01  0000               	nop
  2566                           
  2567                           ;megaonoff.c: 462: TX1REG = '0';_delay((unsigned long)((1)*(16000000/4000.0)));
  2568  0D02  3030               	movlw	48
  2569  0D03  0023               	movlb	3	; select bank3
  2570  0D04  009A               	movwf	26	;volatile
  2571  0D05  3006               	movlw	6
  2572  0D06  0020               	movlb	0	; select bank0
  2573  0D07  00C3               	movwf	??_main
  2574  0D08  3030               	movlw	48
  2575  0D09                     u4187:	
  2576  0D09  0B89               	decfsz	9,f
  2577  0D0A  2D09               	goto	u4187
  2578  0D0B  0BC3               	decfsz	??_main,f
  2579  0D0C  2D09               	goto	u4187
  2580  0D0D  0000               	nop
  2581                           
  2582                           ;megaonoff.c: 463: TX1REG = '0';_delay((unsigned long)((1)*(16000000/4000.0)));
  2583  0D0E  3030               	movlw	48
  2584  0D0F  0023               	movlb	3	; select bank3
  2585  0D10  009A               	movwf	26	;volatile
  2586  0D11  3006               	movlw	6
  2587  0D12  0020               	movlb	0	; select bank0
  2588  0D13  00C3               	movwf	??_main
  2589  0D14  3030               	movlw	48
  2590  0D15                     u4197:	
  2591  0D15  0B89               	decfsz	9,f
  2592  0D16  2D15               	goto	u4197
  2593  0D17  0BC3               	decfsz	??_main,f
  2594  0D18  2D15               	goto	u4197
  2595  0D19  0000               	nop
  2596                           
  2597                           ;megaonoff.c: 464: TX1REG = '7';_delay((unsigned long)((1)*(16000000/4000.0)));
  2598  0D1A  3037               	movlw	55
  2599  0D1B  0023               	movlb	3	; select bank3
  2600  0D1C  009A               	movwf	26	;volatile
  2601  0D1D  3006               	movlw	6
  2602  0D1E  0020               	movlb	0	; select bank0
  2603  0D1F  00C3               	movwf	??_main
  2604  0D20  3030               	movlw	48
  2605  0D21                     u4207:	
  2606  0D21  0B89               	decfsz	9,f
  2607  0D22  2D21               	goto	u4207
  2608  0D23  0BC3               	decfsz	??_main,f
  2609  0D24  2D21               	goto	u4207
  2610  0D25  0000               	nop
  2611                           
  2612                           ;megaonoff.c: 465: PORTAbits.RA2=0;
  2613  0D26  0020               	movlb	0	; select bank0
  2614  0D27  110C               	bcf	12,2	;volatile
  2615  0D28                     l2628:	
  2616                           
  2617                           ;megaonoff.c: 466: }
  2618                           ;megaonoff.c: 467: man=0;
  2619  0D28  01CB               	clrf	main@man
  2620  0D29  01CC               	clrf	main@man+1
  2621                           
  2622                           ;megaonoff.c: 468: M7=1;
  2623  0D2A  3001               	movlw	1
  2624  0D2B  00D7               	movwf	_M7
  2625  0D2C  3000               	movlw	0
  2626  0D2D  00D8               	movwf	_M7+1
  2627  0D2E                     l2632:	
  2628                           
  2629                           ;megaonoff.c: 470: }
  2630                           ;megaonoff.c: 472: if(copy_parentalLockBuffer[7] == '0' && RD6 == 1 && M7 == 1)
  2631  0D2E  3030               	movlw	48
  2632  0D2F  0021               	movlb	1	; select bank1
  2633  0D30  0639               	xorwf	(_copy_parentalLockBuffer^(0+128)+7),w
  2634  0D31  1D03               	btfss	3,2
  2635  0D32  2D7D               	goto	l2648
  2636  0D33  0020               	movlb	0	; select bank0
  2637  0D34  1F0F               	btfss	15,6	;volatile
  2638  0D35  2D7D               	goto	l2648
  2639  0D36  0357               	decf	_M7,w
  2640  0D37  0458               	iorwf	_M7+1,w
  2641  0D38  1D03               	btfss	3,2
  2642  0D39  2D7D               	goto	l2648
  2643                           
  2644                           ;megaonoff.c: 473: {
  2645                           ;megaonoff.c: 474: if(man==1)
  2646  0D3A  034B               	decf	main@man,w
  2647  0D3B  044C               	iorwf	main@man+1,w
  2648  0D3C  1D03               	btfss	3,2
  2649  0D3D  2D79               	goto	l2644
  2650                           
  2651                           ;megaonoff.c: 475: {
  2652                           ;megaonoff.c: 476: _delay((unsigned long)((5)*(16000000/4000.0)));
  2653  0D3E  301A               	movlw	26
  2654  0D3F  0020               	movlb	0	; select bank0
  2655  0D40  00C3               	movwf	??_main
  2656  0D41  30F8               	movlw	248
  2657  0D42                     u4217:	
  2658  0D42  0B89               	decfsz	9,f
  2659  0D43  2D42               	goto	u4217
  2660  0D44  0BC3               	decfsz	??_main,f
  2661  0D45  2D42               	goto	u4217
  2662  0D46  0000               	nop
  2663                           
  2664                           ;megaonoff.c: 477: TX1REG = 'R';_delay((unsigned long)((1)*(16000000/4000.0)));
  2665  0D47  3052               	movlw	82
  2666  0D48  0023               	movlb	3	; select bank3
  2667  0D49  009A               	movwf	26	;volatile
  2668  0D4A  3006               	movlw	6
  2669  0D4B  0020               	movlb	0	; select bank0
  2670  0D4C  00C3               	movwf	??_main
  2671  0D4D  3030               	movlw	48
  2672  0D4E                     u4227:	
  2673  0D4E  0B89               	decfsz	9,f
  2674  0D4F  2D4E               	goto	u4227
  2675  0D50  0BC3               	decfsz	??_main,f
  2676  0D51  2D4E               	goto	u4227
  2677  0D52  0000               	nop
  2678                           
  2679                           ;megaonoff.c: 478: TX1REG = '1';_delay((unsigned long)((1)*(16000000/4000.0)));
  2680  0D53  3031               	movlw	49
  2681  0D54  0023               	movlb	3	; select bank3
  2682  0D55  009A               	movwf	26	;volatile
  2683  0D56  3006               	movlw	6
  2684  0D57  0020               	movlb	0	; select bank0
  2685  0D58  00C3               	movwf	??_main
  2686  0D59  3030               	movlw	48
  2687  0D5A                     u4237:	
  2688  0D5A  0B89               	decfsz	9,f
  2689  0D5B  2D5A               	goto	u4237
  2690  0D5C  0BC3               	decfsz	??_main,f
  2691  0D5D  2D5A               	goto	u4237
  2692  0D5E  0000               	nop
  2693                           
  2694                           ;megaonoff.c: 479: TX1REG = '0';_delay((unsigned long)((1)*(16000000/4000.0)));
  2695  0D5F  3030               	movlw	48
  2696  0D60  0023               	movlb	3	; select bank3
  2697  0D61  009A               	movwf	26	;volatile
  2698  0D62  3006               	movlw	6
  2699  0D63  0020               	movlb	0	; select bank0
  2700  0D64  00C3               	movwf	??_main
  2701  0D65  3030               	movlw	48
  2702  0D66                     u4247:	
  2703  0D66  0B89               	decfsz	9,f
  2704  0D67  2D66               	goto	u4247
  2705  0D68  0BC3               	decfsz	??_main,f
  2706  0D69  2D66               	goto	u4247
  2707  0D6A  0000               	nop
  2708                           
  2709                           ;megaonoff.c: 480: TX1REG = '7';_delay((unsigned long)((1)*(16000000/4000.0)));
  2710  0D6B  3037               	movlw	55
  2711  0D6C  0023               	movlb	3	; select bank3
  2712  0D6D  009A               	movwf	26	;volatile
  2713  0D6E  3006               	movlw	6
  2714  0D6F  0020               	movlb	0	; select bank0
  2715  0D70  00C3               	movwf	??_main
  2716  0D71  3030               	movlw	48
  2717  0D72                     u4257:	
  2718  0D72  0B89               	decfsz	9,f
  2719  0D73  2D72               	goto	u4257
  2720  0D74  0BC3               	decfsz	??_main,f
  2721  0D75  2D72               	goto	u4257
  2722  0D76  0000               	nop
  2723                           
  2724                           ;megaonoff.c: 481: PORTAbits.RA2=1;
  2725  0D77  0020               	movlb	0	; select bank0
  2726  0D78  150C               	bsf	12,2	;volatile
  2727  0D79                     l2644:	
  2728                           
  2729                           ;megaonoff.c: 482: }
  2730                           ;megaonoff.c: 483: man=0;
  2731  0D79  01CB               	clrf	main@man
  2732  0D7A  01CC               	clrf	main@man+1
  2733                           
  2734                           ;megaonoff.c: 484: M7=0;
  2735  0D7B  01D7               	clrf	_M7
  2736  0D7C  01D8               	clrf	_M7+1
  2737  0D7D                     l2648:	
  2738                           
  2739                           ;megaonoff.c: 486: }
  2740                           ;megaonoff.c: 491: if(copy_parentalLockBuffer[8] == '0' && RD5 == 0 && M8 == 0)
  2741  0D7D  3030               	movlw	48
  2742  0D7E  0021               	movlb	1	; select bank1
  2743  0D7F  063A               	xorwf	(_copy_parentalLockBuffer^(0+128)+8),w
  2744  0D80  1D03               	btfss	3,2
  2745  0D81  2DCE               	goto	l2664
  2746  0D82  0020               	movlb	0	; select bank0
  2747  0D83  1A8F               	btfsc	15,5	;volatile
  2748  0D84  2DCE               	goto	l2664
  2749  0D85  0855               	movf	_M8,w
  2750  0D86  0456               	iorwf	_M8+1,w
  2751  0D87  1D03               	btfss	3,2
  2752  0D88  2DCE               	goto	l2664
  2753                           
  2754                           ;megaonoff.c: 492: {
  2755                           ;megaonoff.c: 493: if(man==1)
  2756  0D89  034B               	decf	main@man,w
  2757  0D8A  044C               	iorwf	main@man+1,w
  2758  0D8B  1D03               	btfss	3,2
  2759  0D8C  2DC8               	goto	l2660
  2760                           
  2761                           ;megaonoff.c: 494: {
  2762                           ;megaonoff.c: 495: _delay((unsigned long)((5)*(16000000/4000.0)));
  2763  0D8D  301A               	movlw	26
  2764  0D8E  0020               	movlb	0	; select bank0
  2765  0D8F  00C3               	movwf	??_main
  2766  0D90  30F8               	movlw	248
  2767  0D91                     u4267:	
  2768  0D91  0B89               	decfsz	9,f
  2769  0D92  2D91               	goto	u4267
  2770  0D93  0BC3               	decfsz	??_main,f
  2771  0D94  2D91               	goto	u4267
  2772  0D95  0000               	nop
  2773                           
  2774                           ;megaonoff.c: 496: TX1REG = 'R';_delay((unsigned long)((1)*(16000000/4000.0)));
  2775  0D96  3052               	movlw	82
  2776  0D97  0023               	movlb	3	; select bank3
  2777  0D98  009A               	movwf	26	;volatile
  2778  0D99  3006               	movlw	6
  2779  0D9A  0020               	movlb	0	; select bank0
  2780  0D9B  00C3               	movwf	??_main
  2781  0D9C  3030               	movlw	48
  2782  0D9D                     u4277:	
  2783  0D9D  0B89               	decfsz	9,f
  2784  0D9E  2D9D               	goto	u4277
  2785  0D9F  0BC3               	decfsz	??_main,f
  2786  0DA0  2D9D               	goto	u4277
  2787  0DA1  0000               	nop
  2788                           
  2789                           ;megaonoff.c: 497: TX1REG = '0';_delay((unsigned long)((1)*(16000000/4000.0)));
  2790  0DA2  3030               	movlw	48
  2791  0DA3  0023               	movlb	3	; select bank3
  2792  0DA4  009A               	movwf	26	;volatile
  2793  0DA5  3006               	movlw	6
  2794  0DA6  0020               	movlb	0	; select bank0
  2795  0DA7  00C3               	movwf	??_main
  2796  0DA8  3030               	movlw	48
  2797  0DA9                     u4287:	
  2798  0DA9  0B89               	decfsz	9,f
  2799  0DAA  2DA9               	goto	u4287
  2800  0DAB  0BC3               	decfsz	??_main,f
  2801  0DAC  2DA9               	goto	u4287
  2802  0DAD  0000               	nop
  2803                           
  2804                           ;megaonoff.c: 498: TX1REG = '0';_delay((unsigned long)((1)*(16000000/4000.0)));
  2805  0DAE  3030               	movlw	48
  2806  0DAF  0023               	movlb	3	; select bank3
  2807  0DB0  009A               	movwf	26	;volatile
  2808  0DB1  3006               	movlw	6
  2809  0DB2  0020               	movlb	0	; select bank0
  2810  0DB3  00C3               	movwf	??_main
  2811  0DB4  3030               	movlw	48
  2812  0DB5                     u4297:	
  2813  0DB5  0B89               	decfsz	9,f
  2814  0DB6  2DB5               	goto	u4297
  2815  0DB7  0BC3               	decfsz	??_main,f
  2816  0DB8  2DB5               	goto	u4297
  2817  0DB9  0000               	nop
  2818                           
  2819                           ;megaonoff.c: 499: TX1REG = '8';_delay((unsigned long)((1)*(16000000/4000.0)));
  2820  0DBA  3038               	movlw	56
  2821  0DBB  0023               	movlb	3	; select bank3
  2822  0DBC  009A               	movwf	26	;volatile
  2823  0DBD  3006               	movlw	6
  2824  0DBE  0020               	movlb	0	; select bank0
  2825  0DBF  00C3               	movwf	??_main
  2826  0DC0  3030               	movlw	48
  2827  0DC1                     u4307:	
  2828  0DC1  0B89               	decfsz	9,f
  2829  0DC2  2DC1               	goto	u4307
  2830  0DC3  0BC3               	decfsz	??_main,f
  2831  0DC4  2DC1               	goto	u4307
  2832  0DC5  0000               	nop
  2833                           
  2834                           ;megaonoff.c: 500: PORTBbits.RB3=0;
  2835  0DC6  0020               	movlb	0	; select bank0
  2836  0DC7  118D               	bcf	13,3	;volatile
  2837  0DC8                     l2660:	
  2838                           
  2839                           ;megaonoff.c: 501: }
  2840                           ;megaonoff.c: 502: man=0;
  2841  0DC8  01CB               	clrf	main@man
  2842  0DC9  01CC               	clrf	main@man+1
  2843                           
  2844                           ;megaonoff.c: 503: M8=1;
  2845  0DCA  3001               	movlw	1
  2846  0DCB  00D5               	movwf	_M8
  2847  0DCC  3000               	movlw	0
  2848  0DCD  00D6               	movwf	_M8+1
  2849  0DCE                     l2664:	
  2850                           
  2851                           ;megaonoff.c: 505: }
  2852                           ;megaonoff.c: 507: if(copy_parentalLockBuffer[8] == '0' && RD5 == 1 && M8 == 1)
  2853  0DCE  3030               	movlw	48
  2854  0DCF  0021               	movlb	1	; select bank1
  2855  0DD0  063A               	xorwf	(_copy_parentalLockBuffer^(0+128)+8),w
  2856  0DD1  1D03               	btfss	3,2
  2857  0DD2  2E1D               	goto	l2680
  2858  0DD3  0020               	movlb	0	; select bank0
  2859  0DD4  1E8F               	btfss	15,5	;volatile
  2860  0DD5  2E1D               	goto	l2680
  2861  0DD6  0355               	decf	_M8,w
  2862  0DD7  0456               	iorwf	_M8+1,w
  2863  0DD8  1D03               	btfss	3,2
  2864  0DD9  2E1D               	goto	l2680
  2865                           
  2866                           ;megaonoff.c: 508: {
  2867                           ;megaonoff.c: 509: if(man==1)
  2868  0DDA  034B               	decf	main@man,w
  2869  0DDB  044C               	iorwf	main@man+1,w
  2870  0DDC  1D03               	btfss	3,2
  2871  0DDD  2E19               	goto	l2676
  2872                           
  2873                           ;megaonoff.c: 510: {
  2874                           ;megaonoff.c: 511: _delay((unsigned long)((5)*(16000000/4000.0)));
  2875  0DDE  301A               	movlw	26
  2876  0DDF  0020               	movlb	0	; select bank0
  2877  0DE0  00C3               	movwf	??_main
  2878  0DE1  30F8               	movlw	248
  2879  0DE2                     u4317:	
  2880  0DE2  0B89               	decfsz	9,f
  2881  0DE3  2DE2               	goto	u4317
  2882  0DE4  0BC3               	decfsz	??_main,f
  2883  0DE5  2DE2               	goto	u4317
  2884  0DE6  0000               	nop
  2885                           
  2886                           ;megaonoff.c: 512: TX1REG = 'R';_delay((unsigned long)((1)*(16000000/4000.0)));
  2887  0DE7  3052               	movlw	82
  2888  0DE8  0023               	movlb	3	; select bank3
  2889  0DE9  009A               	movwf	26	;volatile
  2890  0DEA  3006               	movlw	6
  2891  0DEB  0020               	movlb	0	; select bank0
  2892  0DEC  00C3               	movwf	??_main
  2893  0DED  3030               	movlw	48
  2894  0DEE                     u4327:	
  2895  0DEE  0B89               	decfsz	9,f
  2896  0DEF  2DEE               	goto	u4327
  2897  0DF0  0BC3               	decfsz	??_main,f
  2898  0DF1  2DEE               	goto	u4327
  2899  0DF2  0000               	nop
  2900                           
  2901                           ;megaonoff.c: 513: TX1REG = '1';_delay((unsigned long)((1)*(16000000/4000.0)));
  2902  0DF3  3031               	movlw	49
  2903  0DF4  0023               	movlb	3	; select bank3
  2904  0DF5  009A               	movwf	26	;volatile
  2905  0DF6  3006               	movlw	6
  2906  0DF7  0020               	movlb	0	; select bank0
  2907  0DF8  00C3               	movwf	??_main
  2908  0DF9  3030               	movlw	48
  2909  0DFA                     u4337:	
  2910  0DFA  0B89               	decfsz	9,f
  2911  0DFB  2DFA               	goto	u4337
  2912  0DFC  0BC3               	decfsz	??_main,f
  2913  0DFD  2DFA               	goto	u4337
  2914  0DFE  0000               	nop
  2915                           
  2916                           ;megaonoff.c: 514: TX1REG = '0';_delay((unsigned long)((1)*(16000000/4000.0)));
  2917  0DFF  3030               	movlw	48
  2918  0E00  0023               	movlb	3	; select bank3
  2919  0E01  009A               	movwf	26	;volatile
  2920  0E02  3006               	movlw	6
  2921  0E03  0020               	movlb	0	; select bank0
  2922  0E04  00C3               	movwf	??_main
  2923  0E05  3030               	movlw	48
  2924  0E06                     u4347:	
  2925  0E06  0B89               	decfsz	9,f
  2926  0E07  2E06               	goto	u4347
  2927  0E08  0BC3               	decfsz	??_main,f
  2928  0E09  2E06               	goto	u4347
  2929  0E0A  0000               	nop
  2930                           
  2931                           ;megaonoff.c: 515: TX1REG = '8';_delay((unsigned long)((1)*(16000000/4000.0)));
  2932  0E0B  3038               	movlw	56
  2933  0E0C  0023               	movlb	3	; select bank3
  2934  0E0D  009A               	movwf	26	;volatile
  2935  0E0E  3006               	movlw	6
  2936  0E0F  0020               	movlb	0	; select bank0
  2937  0E10  00C3               	movwf	??_main
  2938  0E11  3030               	movlw	48
  2939  0E12                     u4357:	
  2940  0E12  0B89               	decfsz	9,f
  2941  0E13  2E12               	goto	u4357
  2942  0E14  0BC3               	decfsz	??_main,f
  2943  0E15  2E12               	goto	u4357
  2944  0E16  0000               	nop
  2945                           
  2946                           ;megaonoff.c: 516: PORTBbits.RB3=1;
  2947  0E17  0020               	movlb	0	; select bank0
  2948  0E18  158D               	bsf	13,3	;volatile
  2949  0E19                     l2676:	
  2950                           
  2951                           ;megaonoff.c: 517: }
  2952                           ;megaonoff.c: 518: man=0;
  2953  0E19  01CB               	clrf	main@man
  2954  0E1A  01CC               	clrf	main@man+1
  2955                           
  2956                           ;megaonoff.c: 519: M8=0;
  2957  0E1B  01D5               	clrf	_M8
  2958  0E1C  01D6               	clrf	_M8+1
  2959  0E1D                     l2680:	
  2960                           
  2961                           ;megaonoff.c: 521: }
  2962                           ;megaonoff.c: 525: if(copy_parentalLockBuffer[9] == '0' && RD4 == 0 && M9 == 0)
  2963  0E1D  3030               	movlw	48
  2964  0E1E  0021               	movlb	1	; select bank1
  2965  0E1F  063B               	xorwf	(_copy_parentalLockBuffer^(0+128)+9),w
  2966  0E20  1D03               	btfss	3,2
  2967  0E21  2E6E               	goto	l2696
  2968  0E22  0020               	movlb	0	; select bank0
  2969  0E23  1A0F               	btfsc	15,4	;volatile
  2970  0E24  2E6E               	goto	l2696
  2971  0E25  0853               	movf	_M9,w
  2972  0E26  0454               	iorwf	_M9+1,w
  2973  0E27  1D03               	btfss	3,2
  2974  0E28  2E6E               	goto	l2696
  2975                           
  2976                           ;megaonoff.c: 526: {
  2977                           ;megaonoff.c: 527: if(man==1)
  2978  0E29  034B               	decf	main@man,w
  2979  0E2A  044C               	iorwf	main@man+1,w
  2980  0E2B  1D03               	btfss	3,2
  2981  0E2C  2E68               	goto	l2692
  2982                           
  2983                           ;megaonoff.c: 528: {
  2984                           ;megaonoff.c: 529: _delay((unsigned long)((5)*(16000000/4000.0)));
  2985  0E2D  301A               	movlw	26
  2986  0E2E  0020               	movlb	0	; select bank0
  2987  0E2F  00C3               	movwf	??_main
  2988  0E30  30F8               	movlw	248
  2989  0E31                     u4367:	
  2990  0E31  0B89               	decfsz	9,f
  2991  0E32  2E31               	goto	u4367
  2992  0E33  0BC3               	decfsz	??_main,f
  2993  0E34  2E31               	goto	u4367
  2994  0E35  0000               	nop
  2995                           
  2996                           ;megaonoff.c: 530: TX1REG = 'R';_delay((unsigned long)((1)*(16000000/4000.0)));
  2997  0E36  3052               	movlw	82
  2998  0E37  0023               	movlb	3	; select bank3
  2999  0E38  009A               	movwf	26	;volatile
  3000  0E39  3006               	movlw	6
  3001  0E3A  0020               	movlb	0	; select bank0
  3002  0E3B  00C3               	movwf	??_main
  3003  0E3C  3030               	movlw	48
  3004  0E3D                     u4377:	
  3005  0E3D  0B89               	decfsz	9,f
  3006  0E3E  2E3D               	goto	u4377
  3007  0E3F  0BC3               	decfsz	??_main,f
  3008  0E40  2E3D               	goto	u4377
  3009  0E41  0000               	nop
  3010                           
  3011                           ;megaonoff.c: 531: TX1REG = '0';_delay((unsigned long)((1)*(16000000/4000.0)));
  3012  0E42  3030               	movlw	48
  3013  0E43  0023               	movlb	3	; select bank3
  3014  0E44  009A               	movwf	26	;volatile
  3015  0E45  3006               	movlw	6
  3016  0E46  0020               	movlb	0	; select bank0
  3017  0E47  00C3               	movwf	??_main
  3018  0E48  3030               	movlw	48
  3019  0E49                     u4387:	
  3020  0E49  0B89               	decfsz	9,f
  3021  0E4A  2E49               	goto	u4387
  3022  0E4B  0BC3               	decfsz	??_main,f
  3023  0E4C  2E49               	goto	u4387
  3024  0E4D  0000               	nop
  3025                           
  3026                           ;megaonoff.c: 532: TX1REG = '0';_delay((unsigned long)((1)*(16000000/4000.0)));
  3027  0E4E  3030               	movlw	48
  3028  0E4F  0023               	movlb	3	; select bank3
  3029  0E50  009A               	movwf	26	;volatile
  3030  0E51  3006               	movlw	6
  3031  0E52  0020               	movlb	0	; select bank0
  3032  0E53  00C3               	movwf	??_main
  3033  0E54  3030               	movlw	48
  3034  0E55                     u4397:	
  3035  0E55  0B89               	decfsz	9,f
  3036  0E56  2E55               	goto	u4397
  3037  0E57  0BC3               	decfsz	??_main,f
  3038  0E58  2E55               	goto	u4397
  3039  0E59  0000               	nop
  3040                           
  3041                           ;megaonoff.c: 533: TX1REG = '9';_delay((unsigned long)((1)*(16000000/4000.0)));
  3042  0E5A  3039               	movlw	57
  3043  0E5B  0023               	movlb	3	; select bank3
  3044  0E5C  009A               	movwf	26	;volatile
  3045  0E5D  3006               	movlw	6
  3046  0E5E  0020               	movlb	0	; select bank0
  3047  0E5F  00C3               	movwf	??_main
  3048  0E60  3030               	movlw	48
  3049  0E61                     u4407:	
  3050  0E61  0B89               	decfsz	9,f
  3051  0E62  2E61               	goto	u4407
  3052  0E63  0BC3               	decfsz	??_main,f
  3053  0E64  2E61               	goto	u4407
  3054  0E65  0000               	nop
  3055                           
  3056                           ;megaonoff.c: 534: PORTAbits.RA5=0;
  3057  0E66  0020               	movlb	0	; select bank0
  3058  0E67  128C               	bcf	12,5	;volatile
  3059  0E68                     l2692:	
  3060                           
  3061                           ;megaonoff.c: 535: }
  3062                           ;megaonoff.c: 536: man=0;
  3063  0E68  01CB               	clrf	main@man
  3064  0E69  01CC               	clrf	main@man+1
  3065                           
  3066                           ;megaonoff.c: 537: M9=1;
  3067  0E6A  3001               	movlw	1
  3068  0E6B  00D3               	movwf	_M9
  3069  0E6C  3000               	movlw	0
  3070  0E6D  00D4               	movwf	_M9+1
  3071  0E6E                     l2696:	
  3072                           
  3073                           ;megaonoff.c: 539: }
  3074                           ;megaonoff.c: 541: if(copy_parentalLockBuffer[9] == '0' && RD4 == 1 && M9 == 1)
  3075  0E6E  3030               	movlw	48
  3076  0E6F  0021               	movlb	1	; select bank1
  3077  0E70  063B               	xorwf	(_copy_parentalLockBuffer^(0+128)+9),w
  3078  0E71  1D03               	btfss	3,2
  3079  0E72  2EBD               	goto	l2712
  3080  0E73  0020               	movlb	0	; select bank0
  3081  0E74  1E0F               	btfss	15,4	;volatile
  3082  0E75  2EBD               	goto	l2712
  3083  0E76  0353               	decf	_M9,w
  3084  0E77  0454               	iorwf	_M9+1,w
  3085  0E78  1D03               	btfss	3,2
  3086  0E79  2EBD               	goto	l2712
  3087                           
  3088                           ;megaonoff.c: 542: {
  3089                           ;megaonoff.c: 543: if(man==1)
  3090  0E7A  034B               	decf	main@man,w
  3091  0E7B  044C               	iorwf	main@man+1,w
  3092  0E7C  1D03               	btfss	3,2
  3093  0E7D  2EB9               	goto	l2708
  3094                           
  3095                           ;megaonoff.c: 544: {
  3096                           ;megaonoff.c: 545: _delay((unsigned long)((5)*(16000000/4000.0)));
  3097  0E7E  301A               	movlw	26
  3098  0E7F  0020               	movlb	0	; select bank0
  3099  0E80  00C3               	movwf	??_main
  3100  0E81  30F8               	movlw	248
  3101  0E82                     u4417:	
  3102  0E82  0B89               	decfsz	9,f
  3103  0E83  2E82               	goto	u4417
  3104  0E84  0BC3               	decfsz	??_main,f
  3105  0E85  2E82               	goto	u4417
  3106  0E86  0000               	nop
  3107                           
  3108                           ;megaonoff.c: 546: TX1REG = 'R';_delay((unsigned long)((1)*(16000000/4000.0)));
  3109  0E87  3052               	movlw	82
  3110  0E88  0023               	movlb	3	; select bank3
  3111  0E89  009A               	movwf	26	;volatile
  3112  0E8A  3006               	movlw	6
  3113  0E8B  0020               	movlb	0	; select bank0
  3114  0E8C  00C3               	movwf	??_main
  3115  0E8D  3030               	movlw	48
  3116  0E8E                     u4427:	
  3117  0E8E  0B89               	decfsz	9,f
  3118  0E8F  2E8E               	goto	u4427
  3119  0E90  0BC3               	decfsz	??_main,f
  3120  0E91  2E8E               	goto	u4427
  3121  0E92  0000               	nop
  3122                           
  3123                           ;megaonoff.c: 547: TX1REG = '1';_delay((unsigned long)((1)*(16000000/4000.0)));
  3124  0E93  3031               	movlw	49
  3125  0E94  0023               	movlb	3	; select bank3
  3126  0E95  009A               	movwf	26	;volatile
  3127  0E96  3006               	movlw	6
  3128  0E97  0020               	movlb	0	; select bank0
  3129  0E98  00C3               	movwf	??_main
  3130  0E99  3030               	movlw	48
  3131  0E9A                     u4437:	
  3132  0E9A  0B89               	decfsz	9,f
  3133  0E9B  2E9A               	goto	u4437
  3134  0E9C  0BC3               	decfsz	??_main,f
  3135  0E9D  2E9A               	goto	u4437
  3136  0E9E  0000               	nop
  3137                           
  3138                           ;megaonoff.c: 548: TX1REG = '0';_delay((unsigned long)((1)*(16000000/4000.0)));
  3139  0E9F  3030               	movlw	48
  3140  0EA0  0023               	movlb	3	; select bank3
  3141  0EA1  009A               	movwf	26	;volatile
  3142  0EA2  3006               	movlw	6
  3143  0EA3  0020               	movlb	0	; select bank0
  3144  0EA4  00C3               	movwf	??_main
  3145  0EA5  3030               	movlw	48
  3146  0EA6                     u4447:	
  3147  0EA6  0B89               	decfsz	9,f
  3148  0EA7  2EA6               	goto	u4447
  3149  0EA8  0BC3               	decfsz	??_main,f
  3150  0EA9  2EA6               	goto	u4447
  3151  0EAA  0000               	nop
  3152                           
  3153                           ;megaonoff.c: 549: TX1REG = '9';_delay((unsigned long)((1)*(16000000/4000.0)));
  3154  0EAB  3039               	movlw	57
  3155  0EAC  0023               	movlb	3	; select bank3
  3156  0EAD  009A               	movwf	26	;volatile
  3157  0EAE  3006               	movlw	6
  3158  0EAF  0020               	movlb	0	; select bank0
  3159  0EB0  00C3               	movwf	??_main
  3160  0EB1  3030               	movlw	48
  3161  0EB2                     u4457:	
  3162  0EB2  0B89               	decfsz	9,f
  3163  0EB3  2EB2               	goto	u4457
  3164  0EB4  0BC3               	decfsz	??_main,f
  3165  0EB5  2EB2               	goto	u4457
  3166  0EB6  0000               	nop
  3167                           
  3168                           ;megaonoff.c: 550: PORTAbits.RA5=1;
  3169  0EB7  0020               	movlb	0	; select bank0
  3170  0EB8  168C               	bsf	12,5	;volatile
  3171  0EB9                     l2708:	
  3172                           
  3173                           ;megaonoff.c: 551: }
  3174                           ;megaonoff.c: 552: man=0;
  3175  0EB9  01CB               	clrf	main@man
  3176  0EBA  01CC               	clrf	main@man+1
  3177                           
  3178                           ;megaonoff.c: 553: M9=0;
  3179  0EBB  01D3               	clrf	_M9
  3180  0EBC  01D4               	clrf	_M9+1
  3181  0EBD                     l2712:	
  3182                           
  3183                           ;megaonoff.c: 555: }
  3184                           ;megaonoff.c: 559: if(copy_parentalLockBuffer[10] == '0' && RD3 == 0 && M10 == 0)
  3185  0EBD  3030               	movlw	48
  3186  0EBE  0021               	movlb	1	; select bank1
  3187  0EBF  063C               	xorwf	(_copy_parentalLockBuffer^(0+128)+10),w
  3188  0EC0  1D03               	btfss	3,2
  3189  0EC1  2F0E               	goto	l2728
  3190  0EC2  0020               	movlb	0	; select bank0
  3191  0EC3  198F               	btfsc	15,3	;volatile
  3192  0EC4  2F0E               	goto	l2728
  3193  0EC5  0851               	movf	_M10,w
  3194  0EC6  0452               	iorwf	_M10+1,w
  3195  0EC7  1D03               	btfss	3,2
  3196  0EC8  2F0E               	goto	l2728
  3197                           
  3198                           ;megaonoff.c: 560: {
  3199                           ;megaonoff.c: 561: if(man==1)
  3200  0EC9  034B               	decf	main@man,w
  3201  0ECA  044C               	iorwf	main@man+1,w
  3202  0ECB  1D03               	btfss	3,2
  3203  0ECC  2F08               	goto	l2724
  3204                           
  3205                           ;megaonoff.c: 562: {
  3206                           ;megaonoff.c: 563: _delay((unsigned long)((5)*(16000000/4000.0)));
  3207  0ECD  301A               	movlw	26
  3208  0ECE  0020               	movlb	0	; select bank0
  3209  0ECF  00C3               	movwf	??_main
  3210  0ED0  30F8               	movlw	248
  3211  0ED1                     u4467:	
  3212  0ED1  0B89               	decfsz	9,f
  3213  0ED2  2ED1               	goto	u4467
  3214  0ED3  0BC3               	decfsz	??_main,f
  3215  0ED4  2ED1               	goto	u4467
  3216  0ED5  0000               	nop
  3217                           
  3218                           ;megaonoff.c: 564: TX1REG = 'R';_delay((unsigned long)((1)*(16000000/4000.0)));
  3219  0ED6  3052               	movlw	82
  3220  0ED7  0023               	movlb	3	; select bank3
  3221  0ED8  009A               	movwf	26	;volatile
  3222  0ED9  3006               	movlw	6
  3223  0EDA  0020               	movlb	0	; select bank0
  3224  0EDB  00C3               	movwf	??_main
  3225  0EDC  3030               	movlw	48
  3226  0EDD                     u4477:	
  3227  0EDD  0B89               	decfsz	9,f
  3228  0EDE  2EDD               	goto	u4477
  3229  0EDF  0BC3               	decfsz	??_main,f
  3230  0EE0  2EDD               	goto	u4477
  3231  0EE1  0000               	nop
  3232                           
  3233                           ;megaonoff.c: 565: TX1REG = '0';_delay((unsigned long)((1)*(16000000/4000.0)));
  3234  0EE2  3030               	movlw	48
  3235  0EE3  0023               	movlb	3	; select bank3
  3236  0EE4  009A               	movwf	26	;volatile
  3237  0EE5  3006               	movlw	6
  3238  0EE6  0020               	movlb	0	; select bank0
  3239  0EE7  00C3               	movwf	??_main
  3240  0EE8  3030               	movlw	48
  3241  0EE9                     u4487:	
  3242  0EE9  0B89               	decfsz	9,f
  3243  0EEA  2EE9               	goto	u4487
  3244  0EEB  0BC3               	decfsz	??_main,f
  3245  0EEC  2EE9               	goto	u4487
  3246  0EED  0000               	nop
  3247                           
  3248                           ;megaonoff.c: 566: TX1REG = '1';_delay((unsigned long)((1)*(16000000/4000.0)));
  3249  0EEE  3031               	movlw	49
  3250  0EEF  0023               	movlb	3	; select bank3
  3251  0EF0  009A               	movwf	26	;volatile
  3252  0EF1  3006               	movlw	6
  3253  0EF2  0020               	movlb	0	; select bank0
  3254  0EF3  00C3               	movwf	??_main
  3255  0EF4  3030               	movlw	48
  3256  0EF5                     u4497:	
  3257  0EF5  0B89               	decfsz	9,f
  3258  0EF6  2EF5               	goto	u4497
  3259  0EF7  0BC3               	decfsz	??_main,f
  3260  0EF8  2EF5               	goto	u4497
  3261  0EF9  0000               	nop
  3262                           
  3263                           ;megaonoff.c: 567: TX1REG = '0';_delay((unsigned long)((1)*(16000000/4000.0)));
  3264  0EFA  3030               	movlw	48
  3265  0EFB  0023               	movlb	3	; select bank3
  3266  0EFC  009A               	movwf	26	;volatile
  3267  0EFD  3006               	movlw	6
  3268  0EFE  0020               	movlb	0	; select bank0
  3269  0EFF  00C3               	movwf	??_main
  3270  0F00  3030               	movlw	48
  3271  0F01                     u4507:	
  3272  0F01  0B89               	decfsz	9,f
  3273  0F02  2F01               	goto	u4507
  3274  0F03  0BC3               	decfsz	??_main,f
  3275  0F04  2F01               	goto	u4507
  3276  0F05  0000               	nop
  3277                           
  3278                           ;megaonoff.c: 568: PORTCbits.RC0=0;
  3279  0F06  0020               	movlb	0	; select bank0
  3280  0F07  100E               	bcf	14,0	;volatile
  3281  0F08                     l2724:	
  3282                           
  3283                           ;megaonoff.c: 569: }
  3284                           ;megaonoff.c: 570: man=0;
  3285  0F08  01CB               	clrf	main@man
  3286  0F09  01CC               	clrf	main@man+1
  3287                           
  3288                           ;megaonoff.c: 571: M10=1;
  3289  0F0A  3001               	movlw	1
  3290  0F0B  00D1               	movwf	_M10
  3291  0F0C  3000               	movlw	0
  3292  0F0D  00D2               	movwf	_M10+1
  3293  0F0E                     l2728:	
  3294                           
  3295                           ;megaonoff.c: 573: }
  3296                           ;megaonoff.c: 575: if(copy_parentalLockBuffer[10] == '0' && RD3 == 1 && M10 == 1)
  3297  0F0E  3030               	movlw	48
  3298  0F0F  0021               	movlb	1	; select bank1
  3299  0F10  063C               	xorwf	(_copy_parentalLockBuffer^(0+128)+10),w
  3300  0F11  1D03               	btfss	3,2
  3301  0F12  2F5D               	goto	l2744
  3302  0F13  0020               	movlb	0	; select bank0
  3303  0F14  1D8F               	btfss	15,3	;volatile
  3304  0F15  2F5D               	goto	l2744
  3305  0F16  0351               	decf	_M10,w
  3306  0F17  0452               	iorwf	_M10+1,w
  3307  0F18  1D03               	btfss	3,2
  3308  0F19  2F5D               	goto	l2744
  3309                           
  3310                           ;megaonoff.c: 576: {
  3311                           ;megaonoff.c: 577: if(man==1)
  3312  0F1A  034B               	decf	main@man,w
  3313  0F1B  044C               	iorwf	main@man+1,w
  3314  0F1C  1D03               	btfss	3,2
  3315  0F1D  2F59               	goto	l2740
  3316                           
  3317                           ;megaonoff.c: 578: {
  3318                           ;megaonoff.c: 579: _delay((unsigned long)((5)*(16000000/4000.0)));
  3319  0F1E  301A               	movlw	26
  3320  0F1F  0020               	movlb	0	; select bank0
  3321  0F20  00C3               	movwf	??_main
  3322  0F21  30F8               	movlw	248
  3323  0F22                     u4517:	
  3324  0F22  0B89               	decfsz	9,f
  3325  0F23  2F22               	goto	u4517
  3326  0F24  0BC3               	decfsz	??_main,f
  3327  0F25  2F22               	goto	u4517
  3328  0F26  0000               	nop
  3329                           
  3330                           ;megaonoff.c: 580: TX1REG = 'R';_delay((unsigned long)((1)*(16000000/4000.0)));
  3331  0F27  3052               	movlw	82
  3332  0F28  0023               	movlb	3	; select bank3
  3333  0F29  009A               	movwf	26	;volatile
  3334  0F2A  3006               	movlw	6
  3335  0F2B  0020               	movlb	0	; select bank0
  3336  0F2C  00C3               	movwf	??_main
  3337  0F2D  3030               	movlw	48
  3338  0F2E                     u4527:	
  3339  0F2E  0B89               	decfsz	9,f
  3340  0F2F  2F2E               	goto	u4527
  3341  0F30  0BC3               	decfsz	??_main,f
  3342  0F31  2F2E               	goto	u4527
  3343  0F32  0000               	nop
  3344                           
  3345                           ;megaonoff.c: 581: TX1REG = '1';_delay((unsigned long)((1)*(16000000/4000.0)));
  3346  0F33  3031               	movlw	49
  3347  0F34  0023               	movlb	3	; select bank3
  3348  0F35  009A               	movwf	26	;volatile
  3349  0F36  3006               	movlw	6
  3350  0F37  0020               	movlb	0	; select bank0
  3351  0F38  00C3               	movwf	??_main
  3352  0F39  3030               	movlw	48
  3353  0F3A                     u4537:	
  3354  0F3A  0B89               	decfsz	9,f
  3355  0F3B  2F3A               	goto	u4537
  3356  0F3C  0BC3               	decfsz	??_main,f
  3357  0F3D  2F3A               	goto	u4537
  3358  0F3E  0000               	nop
  3359                           
  3360                           ;megaonoff.c: 582: TX1REG = '1';_delay((unsigned long)((1)*(16000000/4000.0)));
  3361  0F3F  3031               	movlw	49
  3362  0F40  0023               	movlb	3	; select bank3
  3363  0F41  009A               	movwf	26	;volatile
  3364  0F42  3006               	movlw	6
  3365  0F43  0020               	movlb	0	; select bank0
  3366  0F44  00C3               	movwf	??_main
  3367  0F45  3030               	movlw	48
  3368  0F46                     u4547:	
  3369  0F46  0B89               	decfsz	9,f
  3370  0F47  2F46               	goto	u4547
  3371  0F48  0BC3               	decfsz	??_main,f
  3372  0F49  2F46               	goto	u4547
  3373  0F4A  0000               	nop
  3374                           
  3375                           ;megaonoff.c: 583: TX1REG = '0';_delay((unsigned long)((1)*(16000000/4000.0)));
  3376  0F4B  3030               	movlw	48
  3377  0F4C  0023               	movlb	3	; select bank3
  3378  0F4D  009A               	movwf	26	;volatile
  3379  0F4E  3006               	movlw	6
  3380  0F4F  0020               	movlb	0	; select bank0
  3381  0F50  00C3               	movwf	??_main
  3382  0F51  3030               	movlw	48
  3383  0F52                     u4557:	
  3384  0F52  0B89               	decfsz	9,f
  3385  0F53  2F52               	goto	u4557
  3386  0F54  0BC3               	decfsz	??_main,f
  3387  0F55  2F52               	goto	u4557
  3388  0F56  0000               	nop
  3389                           
  3390                           ;megaonoff.c: 584: PORTCbits.RC0=1;
  3391  0F57  0020               	movlb	0	; select bank0
  3392  0F58  140E               	bsf	14,0	;volatile
  3393  0F59                     l2740:	
  3394                           
  3395                           ;megaonoff.c: 585: }
  3396                           ;megaonoff.c: 586: man=0;
  3397  0F59  01CB               	clrf	main@man
  3398  0F5A  01CC               	clrf	main@man+1
  3399                           
  3400                           ;megaonoff.c: 587: M10=0;
  3401  0F5B  01D1               	clrf	_M10
  3402  0F5C  01D2               	clrf	_M10+1
  3403  0F5D                     l2744:	
  3404                           
  3405                           ;megaonoff.c: 589: }
  3406                           ;megaonoff.c: 593: if(copy_parentalLockBuffer[11] == '0' && RD2 == 0 && M11 == 0)
  3407  0F5D  3030               	movlw	48
  3408  0F5E  0021               	movlb	1	; select bank1
  3409  0F5F  063D               	xorwf	(_copy_parentalLockBuffer^(0+128)+11),w
  3410  0F60  1D03               	btfss	3,2
  3411  0F61  2FAF               	goto	l2760
  3412  0F62  0020               	movlb	0	; select bank0
  3413  0F63  190F               	btfsc	15,2	;volatile
  3414  0F64  2FAF               	goto	l2760
  3415  0F65  084F               	movf	_M11,w
  3416  0F66  0450               	iorwf	_M11+1,w
  3417  0F67  1D03               	btfss	3,2
  3418  0F68  2FAF               	goto	l2760
  3419                           
  3420                           ;megaonoff.c: 594: {
  3421                           ;megaonoff.c: 595: if(man==1)
  3422  0F69  034B               	decf	main@man,w
  3423  0F6A  044C               	iorwf	main@man+1,w
  3424  0F6B  1D03               	btfss	3,2
  3425  0F6C  2FA8               	goto	l2756
  3426                           
  3427                           ;megaonoff.c: 596: {
  3428                           ;megaonoff.c: 597: _delay((unsigned long)((5)*(16000000/4000.0)));
  3429  0F6D  301A               	movlw	26
  3430  0F6E  0020               	movlb	0	; select bank0
  3431  0F6F  00C3               	movwf	??_main
  3432  0F70  30F8               	movlw	248
  3433  0F71                     u4567:	
  3434  0F71  0B89               	decfsz	9,f
  3435  0F72  2F71               	goto	u4567
  3436  0F73  0BC3               	decfsz	??_main,f
  3437  0F74  2F71               	goto	u4567
  3438  0F75  0000               	nop
  3439                           
  3440                           ;megaonoff.c: 598: TX1REG = 'R';_delay((unsigned long)((1)*(16000000/4000.0)));
  3441  0F76  3052               	movlw	82
  3442  0F77  0023               	movlb	3	; select bank3
  3443  0F78  009A               	movwf	26	;volatile
  3444  0F79  3006               	movlw	6
  3445  0F7A  0020               	movlb	0	; select bank0
  3446  0F7B  00C3               	movwf	??_main
  3447  0F7C  3030               	movlw	48
  3448  0F7D                     u4577:	
  3449  0F7D  0B89               	decfsz	9,f
  3450  0F7E  2F7D               	goto	u4577
  3451  0F7F  0BC3               	decfsz	??_main,f
  3452  0F80  2F7D               	goto	u4577
  3453  0F81  0000               	nop
  3454                           
  3455                           ;megaonoff.c: 599: TX1REG = '0';_delay((unsigned long)((1)*(16000000/4000.0)));
  3456  0F82  3030               	movlw	48
  3457  0F83  0023               	movlb	3	; select bank3
  3458  0F84  009A               	movwf	26	;volatile
  3459  0F85  3006               	movlw	6
  3460  0F86  0020               	movlb	0	; select bank0
  3461  0F87  00C3               	movwf	??_main
  3462  0F88  3030               	movlw	48
  3463  0F89                     u4587:	
  3464  0F89  0B89               	decfsz	9,f
  3465  0F8A  2F89               	goto	u4587
  3466  0F8B  0BC3               	decfsz	??_main,f
  3467  0F8C  2F89               	goto	u4587
  3468  0F8D  0000               	nop
  3469                           
  3470                           ;megaonoff.c: 600: TX1REG = '1';_delay((unsigned long)((1)*(16000000/4000.0)));
  3471  0F8E  3031               	movlw	49
  3472  0F8F  0023               	movlb	3	; select bank3
  3473  0F90  009A               	movwf	26	;volatile
  3474  0F91  3006               	movlw	6
  3475  0F92  0020               	movlb	0	; select bank0
  3476  0F93  00C3               	movwf	??_main
  3477  0F94  3030               	movlw	48
  3478  0F95                     u4597:	
  3479  0F95  0B89               	decfsz	9,f
  3480  0F96  2F95               	goto	u4597
  3481  0F97  0BC3               	decfsz	??_main,f
  3482  0F98  2F95               	goto	u4597
  3483  0F99  0000               	nop
  3484                           
  3485                           ;megaonoff.c: 601: TX1REG = '1';_delay((unsigned long)((1)*(16000000/4000.0)));
  3486  0F9A  3031               	movlw	49
  3487  0F9B  0023               	movlb	3	; select bank3
  3488  0F9C  009A               	movwf	26	;volatile
  3489  0F9D  3006               	movlw	6
  3490  0F9E  0020               	movlb	0	; select bank0
  3491  0F9F  00C3               	movwf	??_main
  3492  0FA0  3030               	movlw	48
  3493  0FA1                     u4607:	
  3494  0FA1  0B89               	decfsz	9,f
  3495  0FA2  2FA1               	goto	u4607
  3496  0FA3  0BC3               	decfsz	??_main,f
  3497  0FA4  2FA1               	goto	u4607
  3498  0FA5  0000               	nop
  3499                           
  3500                           ;megaonoff.c: 602: PORTFbits.RF0=0;
  3501  0FA6  0025               	movlb	5	; select bank5
  3502  0FA7  100C               	bcf	12,0	;volatile
  3503  0FA8                     l2756:	
  3504                           
  3505                           ;megaonoff.c: 603: }
  3506                           ;megaonoff.c: 604: man=0;
  3507  0FA8  0020               	movlb	0	; select bank0
  3508  0FA9  01CB               	clrf	main@man
  3509  0FAA  01CC               	clrf	main@man+1
  3510                           
  3511                           ;megaonoff.c: 605: M11=1;
  3512  0FAB  3001               	movlw	1
  3513  0FAC  00CF               	movwf	_M11
  3514  0FAD  3000               	movlw	0
  3515  0FAE  00D0               	movwf	_M11+1
  3516  0FAF                     l2760:	
  3517                           
  3518                           ;megaonoff.c: 607: }
  3519                           ;megaonoff.c: 609: if(copy_parentalLockBuffer[11] == '0' && RD2 == 1 && M11 == 1)
  3520  0FAF  3030               	movlw	48
  3521  0FB0  0021               	movlb	1	; select bank1
  3522  0FB1  063D               	xorwf	(_copy_parentalLockBuffer^(0+128)+11),w
  3523  0FB2  1D03               	btfss	3,2
  3524  0FB3  2886               	goto	l2386
  3525  0FB4  0020               	movlb	0	; select bank0
  3526  0FB5  1D0F               	btfss	15,2	;volatile
  3527  0FB6  2886               	goto	l2386
  3528  0FB7  034F               	decf	_M11,w
  3529  0FB8  0450               	iorwf	_M11+1,w
  3530  0FB9  1D03               	btfss	3,2
  3531  0FBA  2886               	goto	l2386
  3532                           
  3533                           ;megaonoff.c: 610: {
  3534                           ;megaonoff.c: 611: if(man==1)
  3535  0FBB  034B               	decf	main@man,w
  3536  0FBC  044C               	iorwf	main@man+1,w
  3537  0FBD  1D03               	btfss	3,2
  3538  0FBE  2FFA               	goto	l2772
  3539                           
  3540                           ;megaonoff.c: 612: {
  3541                           ;megaonoff.c: 613: _delay((unsigned long)((5)*(16000000/4000.0)));
  3542  0FBF  301A               	movlw	26
  3543  0FC0  0020               	movlb	0	; select bank0
  3544  0FC1  00C3               	movwf	??_main
  3545  0FC2  30F8               	movlw	248
  3546  0FC3                     u4617:	
  3547  0FC3  0B89               	decfsz	9,f
  3548  0FC4  2FC3               	goto	u4617
  3549  0FC5  0BC3               	decfsz	??_main,f
  3550  0FC6  2FC3               	goto	u4617
  3551  0FC7  0000               	nop
  3552                           
  3553                           ;megaonoff.c: 614: TX1REG = 'R';_delay((unsigned long)((1)*(16000000/4000.0)));
  3554  0FC8  3052               	movlw	82
  3555  0FC9  0023               	movlb	3	; select bank3
  3556  0FCA  009A               	movwf	26	;volatile
  3557  0FCB  3006               	movlw	6
  3558  0FCC  0020               	movlb	0	; select bank0
  3559  0FCD  00C3               	movwf	??_main
  3560  0FCE  3030               	movlw	48
  3561  0FCF                     u4627:	
  3562  0FCF  0B89               	decfsz	9,f
  3563  0FD0  2FCF               	goto	u4627
  3564  0FD1  0BC3               	decfsz	??_main,f
  3565  0FD2  2FCF               	goto	u4627
  3566  0FD3  0000               	nop
  3567                           
  3568                           ;megaonoff.c: 615: TX1REG = '1';_delay((unsigned long)((1)*(16000000/4000.0)));
  3569  0FD4  3031               	movlw	49
  3570  0FD5  0023               	movlb	3	; select bank3
  3571  0FD6  009A               	movwf	26	;volatile
  3572  0FD7  3006               	movlw	6
  3573  0FD8  0020               	movlb	0	; select bank0
  3574  0FD9  00C3               	movwf	??_main
  3575  0FDA  3030               	movlw	48
  3576  0FDB                     u4637:	
  3577  0FDB  0B89               	decfsz	9,f
  3578  0FDC  2FDB               	goto	u4637
  3579  0FDD  0BC3               	decfsz	??_main,f
  3580  0FDE  2FDB               	goto	u4637
  3581  0FDF  0000               	nop
  3582                           
  3583                           ;megaonoff.c: 616: TX1REG = '1';_delay((unsigned long)((1)*(16000000/4000.0)));
  3584  0FE0  3031               	movlw	49
  3585  0FE1  0023               	movlb	3	; select bank3
  3586  0FE2  009A               	movwf	26	;volatile
  3587  0FE3  3006               	movlw	6
  3588  0FE4  0020               	movlb	0	; select bank0
  3589  0FE5  00C3               	movwf	??_main
  3590  0FE6  3030               	movlw	48
  3591  0FE7                     u4647:	
  3592  0FE7  0B89               	decfsz	9,f
  3593  0FE8  2FE7               	goto	u4647
  3594  0FE9  0BC3               	decfsz	??_main,f
  3595  0FEA  2FE7               	goto	u4647
  3596  0FEB  0000               	nop
  3597                           
  3598                           ;megaonoff.c: 617: TX1REG = '1';_delay((unsigned long)((1)*(16000000/4000.0)));
  3599  0FEC  3031               	movlw	49
  3600  0FED  0023               	movlb	3	; select bank3
  3601  0FEE  009A               	movwf	26	;volatile
  3602  0FEF  3006               	movlw	6
  3603  0FF0  0020               	movlb	0	; select bank0
  3604  0FF1  00C3               	movwf	??_main
  3605  0FF2  3030               	movlw	48
  3606  0FF3                     u4657:	
  3607  0FF3  0B89               	decfsz	9,f
  3608  0FF4  2FF3               	goto	u4657
  3609  0FF5  0BC3               	decfsz	??_main,f
  3610  0FF6  2FF3               	goto	u4657
  3611  0FF7  0000               	nop
  3612                           
  3613                           ;megaonoff.c: 618: PORTFbits.RF0=1;
  3614  0FF8  0025               	movlb	5	; select bank5
  3615  0FF9  140C               	bsf	12,0	;volatile
  3616  0FFA                     l2772:	
  3617                           
  3618                           ;megaonoff.c: 619: }
  3619                           ;megaonoff.c: 620: man=0;
  3620  0FFA  0020               	movlb	0	; select bank0
  3621  0FFB  01CB               	clrf	main@man
  3622  0FFC  01CC               	clrf	main@man+1
  3623                           
  3624                           ;megaonoff.c: 621: M11=0;
  3625  0FFD  01CF               	clrf	_M11
  3626  0FFE  01D0               	clrf	_M11+1
  3627  0FFF  2886               	goto	l2386
  3628  1000                     __end_of_main:	
  3629                           
  3630                           	psect	text1
  3631  02EC                     __ptext1:	
  3632 ;; *************** function _errorsMain *****************
  3633 ;; Defined at:
  3634 ;;		line 858 in file "megaonoff.c"
  3635 ;; Parameters:    Size  Location     Type
  3636 ;;  errNum          1    wreg     PTR unsigned char 
  3637 ;;		 -> ErrorNames(5), 
  3638 ;; Auto vars:     Size  Location     Type
  3639 ;;  errNum          1    3[BANK0 ] PTR unsigned char 
  3640 ;;		 -> ErrorNames(5), 
  3641 ;;  Tx_count        2    1[BANK0 ] int 
  3642 ;; Return value:  Size  Location     Type
  3643 ;;                  1    wreg      void 
  3644 ;; Registers used:
  3645 ;;		wreg, fsr1l, fsr1h, status,2, status,0
  3646 ;; Tracked objects:
  3647 ;;		On entry : 0/0
  3648 ;;		On exit  : 0/0
  3649 ;;		Unchanged: 0/0
  3650 ;; Data sizes:     COMMON   BANK0   BANK1   BANK2   BANK3   BANK4   BANK5   BANK6   BANK7   BANK8   BANK9
  3651 ;;      Params:         0       0       0       0       0       0       0       0       0       0       0
  3652 ;;      Locals:         0       3       0       0       0       0       0       0       0       0       0
  3653 ;;      Temps:          0       1       0       0       0       0       0       0       0       0       0
  3654 ;;      Totals:         0       4       0       0       0       0       0       0       0       0       0
  3655 ;;Total ram usage:        4 bytes
  3656 ;; Hardware stack levels used:    1
  3657 ;; Hardware stack levels required when called:    2
  3658 ;; This function calls:
  3659 ;;		Nothing
  3660 ;; This function is called by:
  3661 ;;		_main
  3662 ;; This function uses a non-reentrant model
  3663 ;;
  3664                           
  3665                           
  3666                           ;psect for function _errorsMain
  3667  02EC                     _errorsMain:	
  3668                           
  3669                           ;incstack = 0
  3670                           ; Regs used in _errorsMain: [wreg+fsr1l+fsr1h+status,2+status,0]
  3671                           ;errorsMain@errNum stored from wreg
  3672  02EC  0020               	movlb	0	; select bank0
  3673  02ED  00A3               	movwf	errorsMain@errNum
  3674                           
  3675                           ;megaonoff.c: 859: int Tx_count=0;
  3676  02EE  01A1               	clrf	errorsMain@Tx_count
  3677  02EF  01A2               	clrf	errorsMain@Tx_count+1
  3678  02F0                     l2380:	
  3679                           ;megaonoff.c: 860: while(Tx_count!=4)
  3680                           
  3681  02F0  3004               	movlw	4
  3682  02F1  0621               	xorwf	errorsMain@Tx_count,w
  3683  02F2  0422               	iorwf	errorsMain@Tx_count+1,w
  3684  02F3  1903               	btfsc	3,2
  3685  02F4  0008               	return
  3686  02F5                     l274:	
  3687                           ;megaonoff.c: 861: {
  3688                           ;megaonoff.c: 862: while (!TX1STAbits.TRMT);
  3689                           
  3690  02F5  0023               	movlb	3	; select bank3
  3691  02F6  1C9E               	btfss	30,1	;volatile
  3692  02F7  2AF5               	goto	l274
  3693                           
  3694                           ;megaonoff.c: 863: TX1REG = *errNum;
  3695  02F8  0020               	movlb	0	; select bank0
  3696  02F9  0823               	movf	errorsMain@errNum,w
  3697  02FA  0086               	movwf	6
  3698  02FB  0187               	clrf	7
  3699  02FC  0801               	movf	1,w
  3700  02FD  0023               	movlb	3	; select bank3
  3701  02FE  009A               	movwf	26	;volatile
  3702                           
  3703                           ;megaonoff.c: 864: *errNum++;
  3704  02FF  3001               	movlw	1
  3705  0300  0020               	movlb	0	; select bank0
  3706  0301  00A0               	movwf	??_errorsMain
  3707  0302  0820               	movf	??_errorsMain,w
  3708  0303  07A3               	addwf	errorsMain@errNum,f
  3709                           
  3710                           ;megaonoff.c: 865: Tx_count++;
  3711  0304  3001               	movlw	1
  3712  0305  07A1               	addwf	errorsMain@Tx_count,f
  3713  0306  3000               	movlw	0
  3714  0307  3DA2               	addwfc	errorsMain@Tx_count+1,f
  3715  0308  2AF0               	goto	l2380
  3716  0309                     __end_of_errorsMain:	
  3717                           
  3718                           	psect	text2
  3719  0278                     __ptext2:	
  3720 ;; *************** function _copyReceivedDataBuffer *****************
  3721 ;; Defined at:
  3722 ;;		line 880 in file "megaonoff.c"
  3723 ;; Parameters:    Size  Location     Type
  3724 ;;		None
  3725 ;; Auto vars:     Size  Location     Type
  3726 ;;  dataBufferCo    2    1[BANK0 ] int 
  3727 ;; Return value:  Size  Location     Type
  3728 ;;                  1    wreg      void 
  3729 ;; Registers used:
  3730 ;;		wreg, fsr1l, fsr1h, status,2, status,0
  3731 ;; Tracked objects:
  3732 ;;		On entry : 0/0
  3733 ;;		On exit  : 0/0
  3734 ;;		Unchanged: 0/0
  3735 ;; Data sizes:     COMMON   BANK0   BANK1   BANK2   BANK3   BANK4   BANK5   BANK6   BANK7   BANK8   BANK9
  3736 ;;      Params:         0       0       0       0       0       0       0       0       0       0       0
  3737 ;;      Locals:         0       2       0       0       0       0       0       0       0       0       0
  3738 ;;      Temps:          0       1       0       0       0       0       0       0       0       0       0
  3739 ;;      Totals:         0       3       0       0       0       0       0       0       0       0       0
  3740 ;;Total ram usage:        3 bytes
  3741 ;; Hardware stack levels used:    1
  3742 ;; Hardware stack levels required when called:    2
  3743 ;; This function calls:
  3744 ;;		Nothing
  3745 ;; This function is called by:
  3746 ;;		_main
  3747 ;; This function uses a non-reentrant model
  3748 ;;
  3749                           
  3750                           
  3751                           ;psect for function _copyReceivedDataBuffer
  3752  0278                     _copyReceivedDataBuffer:	
  3753                           
  3754                           ;megaonoff.c: 881: int dataBufferCounter=2;
  3755                           
  3756                           ;incstack = 0
  3757                           ; Regs used in _copyReceivedDataBuffer: [wreg+fsr1l+fsr1h+status,2+status,0]
  3758  0278  3002               	movlw	2
  3759  0279  0020               	movlb	0	; select bank0
  3760  027A  00A1               	movwf	copyReceivedDataBuffer@dataBufferCounter
  3761  027B  3000               	movlw	0
  3762  027C  00A2               	movwf	copyReceivedDataBuffer@dataBufferCounter+1
  3763                           
  3764                           ;megaonoff.c: 882: for(dataBufferCounter=2;dataBufferCounter<9;dataBufferCounter++){
  3765  027D  3002               	movlw	2
  3766  027E  00A1               	movwf	copyReceivedDataBuffer@dataBufferCounter
  3767  027F  3000               	movlw	0
  3768  0280  00A2               	movwf	copyReceivedDataBuffer@dataBufferCounter+1
  3769  0281                     L1:	
  3770  0281  0822               	movf	copyReceivedDataBuffer@dataBufferCounter+1,w
  3771  0282  3A80               	xorlw	128
  3772  0283  00A0               	movwf	??_copyReceivedDataBuffer
  3773  0284  3080               	movlw	128
  3774  0285  0220               	subwf	??_copyReceivedDataBuffer,w
  3775  0286  1D03               	skipz
  3776  0287  2A8A               	goto	u2555
  3777  0288  3009               	movlw	9
  3778  0289  0221               	subwf	copyReceivedDataBuffer@dataBufferCounter,w
  3779  028A                     u2555:	
  3780  028A  1803               	btfsc	3,0
  3781  028B  0008               	return
  3782                           
  3783                           ;megaonoff.c: 883: tempReceivedDataBuffer[dataBufferCounter-2]=mainReceivedDataBuffer[da
      +                          taBufferCounter];
  3784  028C  0020               	movlb	0	; select bank0
  3785  028D  0821               	movf	copyReceivedDataBuffer@dataBufferCounter,w
  3786  028E  3EA0               	addlw	(low (_mainReceivedDataBuffer| 0))& (0+255)
  3787  028F  0086               	movwf	6
  3788  0290  0187               	clrf	7
  3789  0291  0801               	movf	1,w
  3790  0292  00A0               	movwf	??_copyReceivedDataBuffer
  3791  0293  0821               	movf	copyReceivedDataBuffer@dataBufferCounter,w
  3792  0294  3EFE               	addlw	254
  3793  0295  3ECE               	addlw	(low (_tempReceivedDataBuffer| 0))& (0+255)
  3794  0296  0086               	movwf	6
  3795  0297  0187               	clrf	7
  3796  0298  0820               	movf	??_copyReceivedDataBuffer,w
  3797  0299  0081               	movwf	1
  3798                           
  3799                           ;megaonoff.c: 884: mainReceivedDataBuffer[dataBufferCounter]='#';
  3800  029A  3023               	movlw	35
  3801  029B  00A0               	movwf	??_copyReceivedDataBuffer
  3802  029C  0821               	movf	copyReceivedDataBuffer@dataBufferCounter,w
  3803  029D  3EA0               	addlw	(low (_mainReceivedDataBuffer| 0))& (0+255)
  3804  029E  0086               	movwf	6
  3805  029F  0187               	clrf	7
  3806  02A0  0820               	movf	??_copyReceivedDataBuffer,w
  3807  02A1  0081               	movwf	1
  3808  02A2  3001               	movlw	1
  3809  02A3  07A1               	addwf	copyReceivedDataBuffer@dataBufferCounter,f
  3810  02A4  3000               	movlw	0
  3811  02A5  3DA2               	addwfc	copyReceivedDataBuffer@dataBufferCounter+1,f
  3812  02A6  2A81               	goto	L1
  3813  02A7                     __end_of_copyReceivedDataBuffer:	
  3814                           
  3815                           	psect	text3
  3816  00A6                     __ptext3:	
  3817 ;; *************** function _applianceControl *****************
  3818 ;; Defined at:
  3819 ;;		line 628 in file "megaonoff.c"
  3820 ;; Parameters:    Size  Location     Type
  3821 ;;  charSwitchMS    1    wreg     unsigned char 
  3822 ;;  charSwitchLS    1   14[BANK0 ] unsigned char 
  3823 ;;  charSwitchST    1   15[BANK0 ] unsigned char 
  3824 ;;  chDimmerSpee    1   16[BANK0 ] unsigned char 
  3825 ;;  chDimmerSpee    1   17[BANK0 ] unsigned char 
  3826 ;;  charParental    1   18[BANK0 ] unsigned char 
  3827 ;;  charFinalFra    1   19[BANK0 ] unsigned char 
  3828 ;; Auto vars:     Size  Location     Type
  3829 ;;  charSwitchMS    1   24[BANK0 ] unsigned char 
  3830 ;;  integerSwitc    2   33[BANK0 ] int 
  3831 ;;  currentState    2   31[BANK0 ] int 
  3832 ;;  integerSwitc    2   29[BANK0 ] int 
  3833 ;;  dimmerSpeedS    2   27[BANK0 ] unsigned char [2]
  3834 ;;  switchNumber    2   25[BANK0 ] unsigned char [2]
  3835 ;;  integerSpeed    2   22[BANK0 ] int 
  3836 ;; Return value:  Size  Location     Type
  3837 ;;                  1    wreg      void 
  3838 ;; Registers used:
  3839 ;;		wreg, fsr0l, fsr0h, fsr1l, fsr1h, status,2, status,0, pclath, cstack
  3840 ;; Tracked objects:
  3841 ;;		On entry : 0/0
  3842 ;;		On exit  : 0/0
  3843 ;;		Unchanged: 0/0
  3844 ;; Data sizes:     COMMON   BANK0   BANK1   BANK2   BANK3   BANK4   BANK5   BANK6   BANK7   BANK8   BANK9
  3845 ;;      Params:         0       6       0       0       0       0       0       0       0       0       0
  3846 ;;      Locals:         0      13       0       0       0       0       0       0       0       0       0
  3847 ;;      Temps:          0       2       0       0       0       0       0       0       0       0       0
  3848 ;;      Totals:         0      21       0       0       0       0       0       0       0       0       0
  3849 ;;Total ram usage:       21 bytes
  3850 ;; Hardware stack levels used:    1
  3851 ;; Hardware stack levels required when called:    4
  3852 ;; This function calls:
  3853 ;;		_atoi
  3854 ;;		_sendAcknowledgment
  3855 ;; This function is called by:
  3856 ;;		_main
  3857 ;; This function uses a non-reentrant model
  3858 ;;
  3859                           
  3860                           
  3861                           ;psect for function _applianceControl
  3862  00A6                     _applianceControl:	
  3863                           
  3864                           ;incstack = 0
  3865                           ; Regs used in _applianceControl: [wreg-fsr1h+status,2+status,0+pclath+cstack]
  3866                           ;applianceControl@charSwitchMSB stored from wreg
  3867  00A6  0020               	movlb	0	; select bank0
  3868  00A7  00B8               	movwf	applianceControl@charSwitchMSB
  3869                           
  3870                           ;megaonoff.c: 632: int integerSwitchNumber = 0;
  3871  00A8  01BD               	clrf	applianceControl@integerSwitchNumber
  3872  00A9  01BE               	clrf	applianceControl@integerSwitchNumber+1
  3873                           
  3874                           ;megaonoff.c: 633: int integerSwitchState = 0;
  3875  00AA  01C1               	clrf	applianceControl@integerSwitchState
  3876  00AB  01C2               	clrf	applianceControl@integerSwitchState+1
  3877                           
  3878                           ;megaonoff.c: 634: int integerSpeed = 0;
  3879  00AC  01B6               	clrf	applianceControl@integerSpeed
  3880  00AD  01B7               	clrf	applianceControl@integerSpeed+1
  3881                           
  3882                           ;megaonoff.c: 635: int currentStateBufferPositions=0;
  3883  00AE  01BF               	clrf	applianceControl@currentStateBufferPositions
  3884  00AF  01C0               	clrf	applianceControl@currentStateBufferPositions+1
  3885                           
  3886                           ;megaonoff.c: 638: char switchNumberStringBuffer[2]="#";
  3887  00B0  086A               	movf	applianceControl@F3835+1,w
  3888  00B1  00BA               	movwf	applianceControl@switchNumberStringBuffer+1
  3889  00B2  0869               	movf	applianceControl@F3835,w
  3890  00B3  00B9               	movwf	applianceControl@switchNumberStringBuffer
  3891                           
  3892                           ;megaonoff.c: 639: char dimmerSpeedStringBuffer[2]="#";
  3893  00B4  0868               	movf	applianceControl@F3837+1,w
  3894  00B5  00BC               	movwf	applianceControl@dimmerSpeedStringBuffer+1
  3895  00B6  0867               	movf	applianceControl@F3837,w
  3896  00B7  00BB               	movwf	applianceControl@dimmerSpeedStringBuffer
  3897                           
  3898                           ;megaonoff.c: 641: switchNumberStringBuffer[0]=charSwitchMSB;
  3899  00B8  0838               	movf	applianceControl@charSwitchMSB,w
  3900  00B9  00B4               	movwf	??_applianceControl
  3901  00BA  0834               	movf	??_applianceControl,w
  3902  00BB  00B9               	movwf	applianceControl@switchNumberStringBuffer
  3903                           
  3904                           ;megaonoff.c: 642: switchNumberStringBuffer[1]=charSwitchLSB;
  3905  00BC  082E               	movf	applianceControl@charSwitchLSB,w
  3906  00BD  00B4               	movwf	??_applianceControl
  3907  00BE  0834               	movf	??_applianceControl,w
  3908  00BF  00BA               	movwf	applianceControl@switchNumberStringBuffer+1
  3909                           
  3910                           ;megaonoff.c: 643: integerSwitchNumber = atoi(switchNumberStringBuffer);
  3911  00C0  3039               	movlw	(low (applianceControl@switchNumberStringBuffer| 0))& (0+255)
  3912  00C1  3181  219B  3180   	fcall	_atoi
  3913  00C4  0020               	movlb	0	; select bank0
  3914  00C5  0827               	movf	?_atoi+1,w
  3915  00C6  00BE               	movwf	applianceControl@integerSwitchNumber+1
  3916  00C7  0826               	movf	?_atoi,w
  3917  00C8  00BD               	movwf	applianceControl@integerSwitchNumber
  3918                           
  3919                           ;megaonoff.c: 647: integerSwitchState = charSwitchSTATE-'0';
  3920  00C9  082F               	movf	applianceControl@charSwitchSTATE,w
  3921  00CA  3ED0               	addlw	208
  3922  00CB  00C1               	movwf	applianceControl@integerSwitchState
  3923  00CC  30FF               	movlw	255
  3924  00CD  1803               	skipnc
  3925  00CE  3000               	movlw	0
  3926  00CF  00C2               	movwf	applianceControl@integerSwitchState+1
  3927                           
  3928                           ;megaonoff.c: 650: dimmerSpeedStringBuffer[0]=chDimmerSpeedMSB;
  3929  00D0  0830               	movf	applianceControl@chDimmerSpeedMSB,w
  3930  00D1  00B4               	movwf	??_applianceControl
  3931  00D2  0834               	movf	??_applianceControl,w
  3932  00D3  00BB               	movwf	applianceControl@dimmerSpeedStringBuffer
  3933                           
  3934                           ;megaonoff.c: 651: dimmerSpeedStringBuffer[1]=chDimmerSpeedLSB;
  3935  00D4  0831               	movf	applianceControl@chDimmerSpeedLSB,w
  3936  00D5  00B4               	movwf	??_applianceControl
  3937  00D6  0834               	movf	??_applianceControl,w
  3938  00D7  00BC               	movwf	applianceControl@dimmerSpeedStringBuffer+1
  3939                           
  3940                           ;megaonoff.c: 652: integerSpeed = atoi(dimmerSpeedStringBuffer);
  3941  00D8  303B               	movlw	(low (applianceControl@dimmerSpeedStringBuffer| 0))& (0+255)
  3942  00D9  3181  219B  3180   	fcall	_atoi
  3943  00DC  0020               	movlb	0	; select bank0
  3944  00DD  0827               	movf	?_atoi+1,w
  3945  00DE  00B7               	movwf	applianceControl@integerSpeed+1
  3946  00DF  0826               	movf	?_atoi,w
  3947  00E0  00B6               	movwf	applianceControl@integerSpeed
  3948                           
  3949                           ;megaonoff.c: 656: parentalLockBuffer[integerSwitchNumber] = charParentalControl;
  3950  00E1  0832               	movf	applianceControl@charParentalControl,w
  3951  00E2  00B4               	movwf	??_applianceControl
  3952  00E3  083D               	movf	applianceControl@integerSwitchNumber,w
  3953  00E4  3EC0               	addlw	(low (_parentalLockBuffer| 0))& (0+255)
  3954  00E5  0086               	movwf	6
  3955  00E6  0187               	clrf	7
  3956  00E7  0834               	movf	??_applianceControl,w
  3957  00E8  0081               	movwf	1
  3958                           
  3959                           ;megaonoff.c: 657: copy_parentalLockBuffer[integerSwitchNumber]=parentalLockBuffer[integ
      +                          erSwitchNumber];
  3960  00E9  083D               	movf	applianceControl@integerSwitchNumber,w
  3961  00EA  3EC0               	addlw	(low (_parentalLockBuffer| 0))& (0+255)
  3962  00EB  0086               	movwf	6
  3963  00EC  0187               	clrf	7
  3964  00ED  0801               	movf	1,w
  3965  00EE  00B4               	movwf	??_applianceControl
  3966  00EF  083D               	movf	applianceControl@integerSwitchNumber,w
  3967  00F0  3EB2               	addlw	(low (_copy_parentalLockBuffer| 0))& (0+255)
  3968  00F1  0086               	movwf	6
  3969  00F2  0187               	clrf	7
  3970  00F3  0834               	movf	??_applianceControl,w
  3971  00F4  0081               	movwf	1
  3972                           
  3973                           ;megaonoff.c: 660: currentStateBufferPositions = ((1+4*(integerSwitchNumber))-5);
  3974  00F5  083E               	movf	applianceControl@integerSwitchNumber+1,w
  3975  00F6  00B5               	movwf	??_applianceControl+1
  3976  00F7  083D               	movf	applianceControl@integerSwitchNumber,w
  3977  00F8  00B4               	movwf	??_applianceControl
  3978  00F9  35B4               	lslf	??_applianceControl,f
  3979  00FA  0DB5               	rlf	??_applianceControl+1,f
  3980  00FB  35B4               	lslf	??_applianceControl,f
  3981  00FC  0DB5               	rlf	??_applianceControl+1,f
  3982  00FD  0834               	movf	??_applianceControl,w
  3983  00FE  3EFC               	addlw	252
  3984  00FF  00BF               	movwf	applianceControl@currentStateBufferPositions
  3985  0100  30FF               	movlw	255
  3986  0101  3D35               	addwfc	??_applianceControl+1,w
  3987  0102  00C0               	movwf	applianceControl@currentStateBufferPositions+1
  3988                           
  3989                           ;megaonoff.c: 661: currentStateBuffer[currentStateBufferPositions++] = 'G';
  3990  0103  3047               	movlw	71
  3991  0104  00B4               	movwf	??_applianceControl
  3992  0105  083F               	movf	applianceControl@currentStateBufferPositions,w
  3993  0106  3E20               	addlw	(low (_currentStateBuffer| (0+256)))& (0+255)
  3994  0107  0086               	movwf	6
  3995  0108  3001               	movlw	1	; select bank2/3
  3996  0109  0087               	movwf	7
  3997  010A  0834               	movf	??_applianceControl,w
  3998  010B  0081               	movwf	1
  3999  010C  3001               	movlw	1
  4000  010D  07BF               	addwf	applianceControl@currentStateBufferPositions,f
  4001  010E  3000               	movlw	0
  4002  010F  3DC0               	addwfc	applianceControl@currentStateBufferPositions+1,f
  4003                           
  4004                           ;megaonoff.c: 662: currentStateBuffer[currentStateBufferPositions++] = charSwitchSTATE;
  4005  0110  082F               	movf	applianceControl@charSwitchSTATE,w
  4006  0111  00B4               	movwf	??_applianceControl
  4007  0112  083F               	movf	applianceControl@currentStateBufferPositions,w
  4008  0113  3E20               	addlw	(low (_currentStateBuffer| (0+256)))& (0+255)
  4009  0114  0086               	movwf	6
  4010  0115  3001               	movlw	1	; select bank2/3
  4011  0116  0087               	movwf	7
  4012  0117  0834               	movf	??_applianceControl,w
  4013  0118  0081               	movwf	1
  4014  0119  3001               	movlw	1
  4015  011A  07BF               	addwf	applianceControl@currentStateBufferPositions,f
  4016  011B  3000               	movlw	0
  4017  011C  3DC0               	addwfc	applianceControl@currentStateBufferPositions+1,f
  4018                           
  4019                           ;megaonoff.c: 663: currentStateBuffer[currentStateBufferPositions++] = charSwitchMSB;
  4020  011D  0838               	movf	applianceControl@charSwitchMSB,w
  4021  011E  00B4               	movwf	??_applianceControl
  4022  011F  083F               	movf	applianceControl@currentStateBufferPositions,w
  4023  0120  3E20               	addlw	(low (_currentStateBuffer| (0+256)))& (0+255)
  4024  0121  0086               	movwf	6
  4025  0122  3001               	movlw	1	; select bank2/3
  4026  0123  0087               	movwf	7
  4027  0124  0834               	movf	??_applianceControl,w
  4028  0125  0081               	movwf	1
  4029  0126  3001               	movlw	1
  4030  0127  07BF               	addwf	applianceControl@currentStateBufferPositions,f
  4031  0128  3000               	movlw	0
  4032  0129  3DC0               	addwfc	applianceControl@currentStateBufferPositions+1,f
  4033                           
  4034                           ;megaonoff.c: 664: currentStateBuffer[currentStateBufferPositions] = charSwitchLSB;
  4035  012A  082E               	movf	applianceControl@charSwitchLSB,w
  4036  012B  00B4               	movwf	??_applianceControl
  4037  012C  083F               	movf	applianceControl@currentStateBufferPositions,w
  4038  012D  3E20               	addlw	(low (_currentStateBuffer| (0+256)))& (0+255)
  4039  012E  0086               	movwf	6
  4040  012F  3001               	movlw	1	; select bank2/3
  4041  0130  0087               	movwf	7
  4042  0131  0834               	movf	??_applianceControl,w
  4043  0132  0081               	movwf	1
  4044                           
  4045                           ;megaonoff.c: 666: currentStateBufferPositions-=3;
  4046  0133  30FD               	movlw	253
  4047  0134  07BF               	addwf	applianceControl@currentStateBufferPositions,f
  4048  0135  30FF               	movlw	255
  4049  0136  3DC0               	addwfc	applianceControl@currentStateBufferPositions+1,f
  4050                           
  4051                           ;megaonoff.c: 667: if(charFinalFrameState=='1')
  4052  0137  3031               	movlw	49
  4053  0138  0633               	xorwf	applianceControl@charFinalFrameState,w
  4054  0139  1D03               	btfss	3,2
  4055  013A  2987               	goto	l2362
  4056                           
  4057                           ;megaonoff.c: 668: {
  4058                           ;megaonoff.c: 669: sendAcknowledgment(currentStateBuffer+currentStateBufferPositions);
  4059  013B  083F               	movf	applianceControl@currentStateBufferPositions,w
  4060  013C  3E20               	addlw	(low (_currentStateBuffer| (0+256)))& (0+255)
  4061  013D  3182  22CE  3180   	fcall	_sendAcknowledgment
  4062                           
  4063                           ;megaonoff.c: 670: }
  4064                           ;megaonoff.c: 672: switch(integerSwitchNumber){
  4065  0140  2987               	goto	l2362
  4066  0141                     l2338:	
  4067                           ;megaonoff.c: 673: case 1:
  4068                           
  4069                           
  4070                           ;megaonoff.c: 674: {
  4071                           ;megaonoff.c: 675: PORTBbits.RB1 = integerSwitchState;
  4072  0141  0020               	movlb	0	; select bank0
  4073  0142  0C41               	rrf	applianceControl@integerSwitchState,w
  4074  0143  1C03               	skipc
  4075  0144  108D               	bcf	13,1	;volatile
  4076  0145  1803               	skipnc
  4077  0146  148D               	bsf	13,1	;volatile
  4078                           
  4079                           ;megaonoff.c: 676: }break;
  4080  0147  0008               	return
  4081  0148                     l2340:	
  4082                           ;megaonoff.c: 678: case 2:
  4083                           
  4084                           
  4085                           ;megaonoff.c: 679: {
  4086                           ;megaonoff.c: 680: PORTCbits.RC1 = integerSwitchState;
  4087  0148  0C41               	rrf	applianceControl@integerSwitchState,w
  4088  0149  1C03               	skipc
  4089  014A  108E               	bcf	14,1	;volatile
  4090  014B  1803               	skipnc
  4091  014C  148E               	bsf	14,1	;volatile
  4092                           
  4093                           ;megaonoff.c: 682: } break;
  4094  014D  0008               	return
  4095  014E                     l2342:	
  4096                           ;megaonoff.c: 683: case 3:
  4097                           
  4098                           
  4099                           ;megaonoff.c: 684: {
  4100                           ;megaonoff.c: 685: PORTAbits.RA0 = integerSwitchState;
  4101  014E  0C41               	rrf	applianceControl@integerSwitchState,w
  4102  014F  1C03               	skipc
  4103  0150  100C               	bcf	12,0	;volatile
  4104  0151  1803               	skipnc
  4105  0152  140C               	bsf	12,0	;volatile
  4106                           
  4107                           ;megaonoff.c: 687: } break;
  4108  0153  0008               	return
  4109  0154                     l2344:	
  4110                           ;megaonoff.c: 689: case 4:
  4111                           
  4112                           
  4113                           ;megaonoff.c: 690: {
  4114                           ;megaonoff.c: 691: PORTFbits.RF1 = integerSwitchState;
  4115  0154  0C41               	rrf	applianceControl@integerSwitchState,w
  4116  0155  0025               	movlb	5	; select bank5
  4117  0156  1C03               	skipc
  4118  0157  108C               	bcf	12,1	;volatile
  4119  0158  1803               	skipnc
  4120  0159  148C               	bsf	12,1	;volatile
  4121                           
  4122                           ;megaonoff.c: 692: }break;
  4123  015A  0008               	return
  4124  015B                     l2346:	
  4125                           ;megaonoff.c: 693: case 5:
  4126                           
  4127                           
  4128                           ;megaonoff.c: 694: {
  4129                           ;megaonoff.c: 695: PORTAbits.RA3 = integerSwitchState;
  4130  015B  0020               	movlb	0	; select bank0
  4131  015C  0C41               	rrf	applianceControl@integerSwitchState,w
  4132  015D  1C03               	skipc
  4133  015E  118C               	bcf	12,3	;volatile
  4134  015F  1803               	skipnc
  4135  0160  158C               	bsf	12,3	;volatile
  4136                           
  4137                           ;megaonoff.c: 696: }break;
  4138  0161  0008               	return
  4139  0162                     l2348:	
  4140                           ;megaonoff.c: 697: case 6:
  4141                           
  4142                           
  4143                           ;megaonoff.c: 698: {
  4144                           ;megaonoff.c: 699: PORTAbits.RA1 = integerSwitchState;
  4145  0162  0C41               	rrf	applianceControl@integerSwitchState,w
  4146  0163  1C03               	skipc
  4147  0164  108C               	bcf	12,1	;volatile
  4148  0165  1803               	skipnc
  4149  0166  148C               	bsf	12,1	;volatile
  4150                           
  4151                           ;megaonoff.c: 700: }break;
  4152  0167  0008               	return
  4153  0168                     l2350:	
  4154                           ;megaonoff.c: 702: case 7:
  4155                           
  4156                           
  4157                           ;megaonoff.c: 703: {
  4158                           ;megaonoff.c: 704: PORTAbits.RA2 = integerSwitchState;
  4159  0168  0C41               	rrf	applianceControl@integerSwitchState,w
  4160  0169  1C03               	skipc
  4161  016A  110C               	bcf	12,2	;volatile
  4162  016B  1803               	skipnc
  4163  016C  150C               	bsf	12,2	;volatile
  4164                           
  4165                           ;megaonoff.c: 705: }break;
  4166  016D  0008               	return
  4167  016E                     l2352:	
  4168                           ;megaonoff.c: 708: case 8:
  4169                           
  4170                           
  4171                           ;megaonoff.c: 709: {
  4172                           ;megaonoff.c: 710: PORTBbits.RB3 = integerSwitchState;
  4173  016E  0C41               	rrf	applianceControl@integerSwitchState,w
  4174  016F  1C03               	skipc
  4175  0170  118D               	bcf	13,3	;volatile
  4176  0171  1803               	skipnc
  4177  0172  158D               	bsf	13,3	;volatile
  4178                           
  4179                           ;megaonoff.c: 711: }break;
  4180  0173  0008               	return
  4181  0174                     l2354:	
  4182                           ;megaonoff.c: 714: case 9:
  4183                           
  4184                           
  4185                           ;megaonoff.c: 715: {
  4186                           ;megaonoff.c: 716: PORTAbits.RA5 = integerSwitchState;
  4187  0174  0C41               	rrf	applianceControl@integerSwitchState,w
  4188  0175  1C03               	skipc
  4189  0176  128C               	bcf	12,5	;volatile
  4190  0177  1803               	skipnc
  4191  0178  168C               	bsf	12,5	;volatile
  4192                           
  4193                           ;megaonoff.c: 717: }break;
  4194  0179  0008               	return
  4195  017A                     l2356:	
  4196                           ;megaonoff.c: 720: case 10:
  4197                           
  4198                           
  4199                           ;megaonoff.c: 721: {
  4200                           ;megaonoff.c: 722: PORTCbits.RC0 = integerSwitchState;
  4201  017A  0C41               	rrf	applianceControl@integerSwitchState,w
  4202  017B  1C03               	skipc
  4203  017C  100E               	bcf	14,0	;volatile
  4204  017D  1803               	skipnc
  4205  017E  140E               	bsf	14,0	;volatile
  4206                           
  4207                           ;megaonoff.c: 723: }break;
  4208  017F  0008               	return
  4209  0180                     l2358:	
  4210                           ;megaonoff.c: 726: case 11:
  4211                           
  4212                           
  4213                           ;megaonoff.c: 727: {
  4214                           ;megaonoff.c: 728: PORTFbits.RF0 = integerSwitchState;
  4215  0180  0C41               	rrf	applianceControl@integerSwitchState,w
  4216  0181  0025               	movlb	5	; select bank5
  4217  0182  1C03               	skipc
  4218  0183  100C               	bcf	12,0	;volatile
  4219  0184  1803               	skipnc
  4220  0185  140C               	bsf	12,0	;volatile
  4221                           
  4222                           ;megaonoff.c: 733: }
  4223                           
  4224                           ;megaonoff.c: 732: break;
  4225                           
  4226                           ;megaonoff.c: 731: default:
  4227                           
  4228                           ;megaonoff.c: 729: }break;
  4229  0186  0008               	return
  4230  0187                     l2362:	
  4231                           
  4232                           ; Switch on 2 bytes has been partitioned into a top level switch of size 1, and 1 sub-sw
      +                          itches
  4233                           ; Switch size 1, requested type "space"
  4234                           ; Number of cases is 1, Range of values is 0 to 0
  4235                           ; switch strategies available:
  4236                           ; Name         Instructions Cycles
  4237                           ; simple_byte            4     3 (average)
  4238                           ; direct_byte            8     6 (fixed)
  4239                           ; jumptable            260     6 (fixed)
  4240                           ;	Chosen strategy is simple_byte
  4241  0187  0020               	movlb	0	; select bank0
  4242  0188  083E               	movf	applianceControl@integerSwitchNumber+1,w
  4243  0189  3A00               	xorlw	0	; case 0
  4244  018A  1903               	skipnz
  4245  018B  298D               	goto	l2816
  4246  018C  299A               	goto	l245
  4247  018D                     l2816:	
  4248                           
  4249                           ; Switch size 1, requested type "space"
  4250                           ; Number of cases is 11, Range of values is 1 to 11
  4251                           ; switch strategies available:
  4252                           ; Name         Instructions Cycles
  4253                           ; direct_byte           31     9 (fixed)
  4254                           ; simple_byte           34    18 (average)
  4255                           ; jumptable            263     9 (fixed)
  4256                           ;	Chosen strategy is direct_byte
  4257  018D  083D               	movf	applianceControl@integerSwitchNumber,w
  4258  018E  3EFF               	addlw	-1
  4259  018F  1C03               	skipc
  4260  0190  0008               	return
  4261  0191  0084               	movwf	4
  4262  0192  300B               	movlw	11
  4263  0193  0204               	subwf	4,w
  4264  0194  1803               	skipnc
  4265  0195  0008               	return
  4266  0196  3183               	movlp	high S2818
  4267  0197  3504               	lslf	4,w
  4268  0198  3E3E               	addlw	low S2818
  4269  0199  0082               	movwf	2
  4270  019A                     l245:	
  4271  019A  0008               	return
  4272  019B                     __end_of_applianceControl:	
  4273                           
  4274                           	psect	swtext1
  4275  033E                     __pswtext1:	
  4276  033E                     S2818:	
  4277  033E  3181  2941         	ljmp	l2338
  4278  0340  3181  2948         	ljmp	l2340
  4279  0342  3181  294E         	ljmp	l2342
  4280  0344  3181  2954         	ljmp	l2344
  4281  0346  3181  295B         	ljmp	l2346
  4282  0348  3181  2962         	ljmp	l2348
  4283  034A  3181  2968         	ljmp	l2350
  4284  034C  3181  296E         	ljmp	l2352
  4285  034E  3181  2974         	ljmp	l2354
  4286  0350  3181  297A         	ljmp	l2356
  4287  0352  3181  2980         	ljmp	l2358
  4288                           
  4289                           	psect	text4
  4290  02CE                     __ptext4:	
  4291 ;; *************** function _sendAcknowledgment *****************
  4292 ;; Defined at:
  4293 ;;		line 868 in file "megaonoff.c"
  4294 ;; Parameters:    Size  Location     Type
  4295 ;;  currentState    1    wreg     PTR unsigned char 
  4296 ;;		 -> currentStateBuffer(58), 
  4297 ;; Auto vars:     Size  Location     Type
  4298 ;;  currentState    1    3[BANK0 ] PTR unsigned char 
  4299 ;;		 -> currentStateBuffer(58), 
  4300 ;;  Tx_count        2    1[BANK0 ] int 
  4301 ;; Return value:  Size  Location     Type
  4302 ;;                  1    wreg      void 
  4303 ;; Registers used:
  4304 ;;		wreg, fsr1l, fsr1h, status,2, status,0
  4305 ;; Tracked objects:
  4306 ;;		On entry : 0/0
  4307 ;;		On exit  : 0/0
  4308 ;;		Unchanged: 0/0
  4309 ;; Data sizes:     COMMON   BANK0   BANK1   BANK2   BANK3   BANK4   BANK5   BANK6   BANK7   BANK8   BANK9
  4310 ;;      Params:         0       0       0       0       0       0       0       0       0       0       0
  4311 ;;      Locals:         0       3       0       0       0       0       0       0       0       0       0
  4312 ;;      Temps:          0       1       0       0       0       0       0       0       0       0       0
  4313 ;;      Totals:         0       4       0       0       0       0       0       0       0       0       0
  4314 ;;Total ram usage:        4 bytes
  4315 ;; Hardware stack levels used:    1
  4316 ;; Hardware stack levels required when called:    2
  4317 ;; This function calls:
  4318 ;;		Nothing
  4319 ;; This function is called by:
  4320 ;;		_applianceControl
  4321 ;; This function uses a non-reentrant model
  4322 ;;
  4323                           
  4324                           
  4325                           ;psect for function _sendAcknowledgment
  4326  02CE                     _sendAcknowledgment:	
  4327                           
  4328                           ;incstack = 0
  4329                           ; Regs used in _sendAcknowledgment: [wreg+fsr1l+fsr1h+status,2+status,0]
  4330                           ;sendAcknowledgment@currentStateBuffer stored from wreg
  4331  02CE  0020               	movlb	0	; select bank0
  4332  02CF  00A3               	movwf	sendAcknowledgment@currentStateBuffer
  4333                           
  4334                           ;megaonoff.c: 869: int Tx_count=0;
  4335  02D0  01A1               	clrf	sendAcknowledgment@Tx_count
  4336  02D1  01A2               	clrf	sendAcknowledgment@Tx_count+1
  4337  02D2                     l2210:	
  4338                           ;megaonoff.c: 870: while(Tx_count!=4)
  4339                           
  4340  02D2  3004               	movlw	4
  4341  02D3  0621               	xorwf	sendAcknowledgment@Tx_count,w
  4342  02D4  0422               	iorwf	sendAcknowledgment@Tx_count+1,w
  4343  02D5  1903               	btfsc	3,2
  4344  02D6  0008               	return
  4345  02D7                     l283:	
  4346                           ;megaonoff.c: 871: {
  4347                           ;megaonoff.c: 872: while (!TX1STAbits.TRMT);
  4348                           
  4349  02D7  0023               	movlb	3	; select bank3
  4350  02D8  1C9E               	btfss	30,1	;volatile
  4351  02D9  2AD7               	goto	l283
  4352                           
  4353                           ;megaonoff.c: 874: TX1REG = *currentStateBuffer;
  4354  02DA  0020               	movlb	0	; select bank0
  4355  02DB  0823               	movf	sendAcknowledgment@currentStateBuffer,w
  4356  02DC  0086               	movwf	6
  4357  02DD  3001               	movlw	1	; select bank2/3
  4358  02DE  0087               	movwf	7
  4359  02DF  0801               	movf	1,w
  4360  02E0  0023               	movlb	3	; select bank3
  4361  02E1  009A               	movwf	26	;volatile
  4362                           
  4363                           ;megaonoff.c: 875: *currentStateBuffer++;
  4364  02E2  3001               	movlw	1
  4365  02E3  0020               	movlb	0	; select bank0
  4366  02E4  00A0               	movwf	??_sendAcknowledgment
  4367  02E5  0820               	movf	??_sendAcknowledgment,w
  4368  02E6  07A3               	addwf	sendAcknowledgment@currentStateBuffer,f
  4369                           
  4370                           ;megaonoff.c: 876: Tx_count++;
  4371  02E7  3001               	movlw	1
  4372  02E8  07A1               	addwf	sendAcknowledgment@Tx_count,f
  4373  02E9  3000               	movlw	0
  4374  02EA  3DA2               	addwfc	sendAcknowledgment@Tx_count+1,f
  4375  02EB  2AD2               	goto	l2210
  4376  02EC                     __end_of_sendAcknowledgment:	
  4377                           
  4378                           	psect	text5
  4379  019B                     __ptext5:	
  4380 ;; *************** function _atoi *****************
  4381 ;; Defined at:
  4382 ;;		line 5 in file "C:\Program Files (x86)\Microchip\xc8\v1.45\sources\common\atoi.c"
  4383 ;; Parameters:    Size  Location     Type
  4384 ;;  s               1    wreg     PTR const unsigned char 
  4385 ;;		 -> applianceControl@dimmerSpeedStringBuffer(2), applianceControl@switchNumberStringBuffer(2), 
  4386 ;; Auto vars:     Size  Location     Type
  4387 ;;  s               1   13[BANK0 ] PTR const unsigned char 
  4388 ;;		 -> applianceControl@dimmerSpeedStringBuffer(2), applianceControl@switchNumberStringBuffer(2), 
  4389 ;;  a               2   11[BANK0 ] int 
  4390 ;;  sign            1   10[BANK0 ] unsigned char 
  4391 ;; Return value:  Size  Location     Type
  4392 ;;                  2    6[BANK0 ] int 
  4393 ;; Registers used:
  4394 ;;		wreg, fsr1l, fsr1h, status,2, status,0, pclath, cstack
  4395 ;; Tracked objects:
  4396 ;;		On entry : 0/0
  4397 ;;		On exit  : 0/0
  4398 ;;		Unchanged: 0/0
  4399 ;; Data sizes:     COMMON   BANK0   BANK1   BANK2   BANK3   BANK4   BANK5   BANK6   BANK7   BANK8   BANK9
  4400 ;;      Params:         0       2       0       0       0       0       0       0       0       0       0
  4401 ;;      Locals:         0       4       0       0       0       0       0       0       0       0       0
  4402 ;;      Temps:          0       2       0       0       0       0       0       0       0       0       0
  4403 ;;      Totals:         0       8       0       0       0       0       0       0       0       0       0
  4404 ;;Total ram usage:        8 bytes
  4405 ;; Hardware stack levels used:    1
  4406 ;; Hardware stack levels required when called:    3
  4407 ;; This function calls:
  4408 ;;		___wmul
  4409 ;;		_isdigit
  4410 ;; This function is called by:
  4411 ;;		_applianceControl
  4412 ;; This function uses a non-reentrant model
  4413 ;;
  4414                           
  4415                           
  4416                           ;psect for function _atoi
  4417  019B                     _atoi:	
  4418                           
  4419                           ;incstack = 0
  4420                           ; Regs used in _atoi: [wreg+fsr1l+fsr1h+status,2+status,0+pclath+cstack]
  4421                           ;atoi@s stored from wreg
  4422  019B  0020               	movlb	0	; select bank0
  4423  019C  00AD               	movwf	atoi@s
  4424  019D                     l2172:	
  4425  019D  082D               	movf	atoi@s,w
  4426  019E  0086               	movwf	6
  4427  019F  0187               	clrf	7
  4428  01A0  3020               	movlw	32
  4429  01A1  0601               	xorwf	1,w
  4430  01A2  1D03               	btfss	3,2
  4431  01A3  29A9               	goto	l2174
  4432  01A4                     l2170:	
  4433  01A4  3001               	movlw	1
  4434  01A5  00A8               	movwf	??_atoi
  4435  01A6  0828               	movf	??_atoi,w
  4436  01A7  07AD               	addwf	atoi@s,f
  4437  01A8  299D               	goto	l2172
  4438  01A9                     l2174:	
  4439  01A9  082D               	movf	atoi@s,w
  4440  01AA  0086               	movwf	6
  4441  01AB  0187               	clrf	7
  4442  01AC  3009               	movlw	9
  4443  01AD  0601               	xorwf	1,w
  4444  01AE  1903               	btfsc	3,2
  4445  01AF  29A4               	goto	l2170
  4446  01B0  01AB               	clrf	atoi@a
  4447  01B1  01AC               	clrf	atoi@a+1
  4448  01B2  01AA               	clrf	atoi@sign
  4449  01B3  082D               	movf	atoi@s,w
  4450  01B4  0086               	movwf	6
  4451  01B5  0187               	clrf	7
  4452  01B6  302D               	movlw	45
  4453  01B7  0601               	xorwf	1,w
  4454  01B8  1D03               	btfss	3,2
  4455  01B9  29BF               	goto	l2182
  4456  01BA  3001               	movlw	1
  4457  01BB  00A8               	movwf	??_atoi
  4458  01BC  0828               	movf	??_atoi,w
  4459  01BD  07AA               	addwf	atoi@sign,f
  4460  01BE  29C6               	goto	l2188
  4461  01BF                     l2182:	
  4462  01BF  082D               	movf	atoi@s,w
  4463  01C0  0086               	movwf	6
  4464  01C1  0187               	clrf	7
  4465  01C2  302B               	movlw	43
  4466  01C3  0601               	xorwf	1,w
  4467  01C4  1D03               	btfss	3,2
  4468  01C5  29CA               	goto	l2190
  4469  01C6                     l2188:	
  4470  01C6  3001               	movlw	1
  4471  01C7  00A8               	movwf	??_atoi
  4472  01C8  0828               	movf	??_atoi,w
  4473  01C9  07AD               	addwf	atoi@s,f
  4474  01CA                     l2190:	
  4475  01CA  082D               	movf	atoi@s,w
  4476  01CB  0086               	movwf	6
  4477  01CC  0187               	clrf	7
  4478  01CD  0801               	movf	1,w
  4479  01CE  3183  238F  3181   	fcall	_isdigit
  4480  01D1  1C03               	btfss	3,0
  4481  01D2  29F1               	goto	l2192
  4482  01D3  0020               	movlb	0	; select bank0
  4483  01D4  082C               	movf	atoi@a+1,w
  4484  01D5  00A1               	movwf	___wmul@multiplier+1
  4485  01D6  082B               	movf	atoi@a,w
  4486  01D7  00A0               	movwf	___wmul@multiplier
  4487  01D8  300A               	movlw	10
  4488  01D9  00A2               	movwf	___wmul@multiplicand
  4489  01DA  3000               	movlw	0
  4490  01DB  00A3               	movwf	___wmul@multiplicand+1
  4491  01DC  3183  2309  3181   	fcall	___wmul
  4492  01DF  0020               	movlb	0	; select bank0
  4493  01E0  082D               	movf	atoi@s,w
  4494  01E1  0086               	movwf	6
  4495  01E2  0187               	clrf	7
  4496  01E3  0801               	movf	1,w
  4497  01E4  0720               	addwf	?___wmul,w
  4498  01E5  00A8               	movwf	??_atoi
  4499  01E6  0821               	movf	?___wmul+1,w
  4500  01E7  1803               	skipnc
  4501  01E8  0A21               	incf	?___wmul+1,w
  4502  01E9  00A9               	movwf	??_atoi+1
  4503  01EA  0828               	movf	??_atoi,w
  4504  01EB  3ED0               	addlw	208
  4505  01EC  00AB               	movwf	atoi@a
  4506  01ED  30FF               	movlw	255
  4507  01EE  3D29               	addwfc	??_atoi+1,w
  4508  01EF  00AC               	movwf	atoi@a+1
  4509  01F0  29C6               	goto	l2188
  4510  01F1                     l2192:	
  4511  01F1  0020               	movlb	0	; select bank0
  4512  01F2  082A               	movf	atoi@sign,w
  4513  01F3  1903               	btfsc	3,2
  4514  01F4  2A01               	goto	l2198
  4515  01F5  092B               	comf	atoi@a,w
  4516  01F6  00A8               	movwf	??_atoi
  4517  01F7  092C               	comf	atoi@a+1,w
  4518  01F8  00A9               	movwf	??_atoi+1
  4519  01F9  0AA8               	incf	??_atoi,f
  4520  01FA  1903               	skipnz
  4521  01FB  0AA9               	incf	??_atoi+1,f
  4522  01FC  0828               	movf	??_atoi,w
  4523  01FD  00A6               	movwf	?_atoi
  4524  01FE  0829               	movf	??_atoi+1,w
  4525  01FF  00A7               	movwf	?_atoi+1
  4526  0200  0008               	return
  4527  0201                     l2198:	
  4528  0201  082C               	movf	atoi@a+1,w
  4529  0202  00A7               	movwf	?_atoi+1
  4530  0203  082B               	movf	atoi@a,w
  4531  0204  00A6               	movwf	?_atoi
  4532  0205  0008               	return
  4533  0206                     __end_of_atoi:	
  4534                           
  4535                           	psect	text6
  4536  038F                     __ptext6:	
  4537 ;; *************** function _isdigit *****************
  4538 ;; Defined at:
  4539 ;;		line 8 in file "C:\Program Files (x86)\Microchip\xc8\v1.45\sources\common\isdigit.c"
  4540 ;; Parameters:    Size  Location     Type
  4541 ;;  c               1    wreg     unsigned char 
  4542 ;; Auto vars:     Size  Location     Type
  4543 ;;  c               1    1[BANK0 ] unsigned char 
  4544 ;; Return value:  Size  Location     Type
  4545 ;;		None               void
  4546 ;; Registers used:
  4547 ;;		wreg, status,2, status,0
  4548 ;; Tracked objects:
  4549 ;;		On entry : 0/0
  4550 ;;		On exit  : 0/0
  4551 ;;		Unchanged: 0/0
  4552 ;; Data sizes:     COMMON   BANK0   BANK1   BANK2   BANK3   BANK4   BANK5   BANK6   BANK7   BANK8   BANK9
  4553 ;;      Params:         0       0       0       0       0       0       0       0       0       0       0
  4554 ;;      Locals:         0       2       0       0       0       0       0       0       0       0       0
  4555 ;;      Temps:          0       0       0       0       0       0       0       0       0       0       0
  4556 ;;      Totals:         0       2       0       0       0       0       0       0       0       0       0
  4557 ;;Total ram usage:        2 bytes
  4558 ;; Hardware stack levels used:    1
  4559 ;; Hardware stack levels required when called:    2
  4560 ;; This function calls:
  4561 ;;		Nothing
  4562 ;; This function is called by:
  4563 ;;		_atoi
  4564 ;; This function uses a non-reentrant model
  4565 ;;
  4566                           
  4567                           
  4568                           ;psect for function _isdigit
  4569  038F                     _isdigit:	
  4570                           
  4571                           ;incstack = 0
  4572                           ; Regs used in _isdigit: [wreg+status,2+status,0]
  4573                           ;isdigit@c stored from wreg
  4574  038F  0020               	movlb	0	; select bank0
  4575  0390  00A1               	movwf	isdigit@c
  4576  0391  01A0               	clrf	_isdigit$677
  4577  0392  303A               	movlw	58
  4578  0393  0221               	subwf	isdigit@c,w
  4579  0394  1803               	skipnc
  4580  0395  2B9C               	goto	l2164
  4581  0396  3030               	movlw	48
  4582  0397  0221               	subwf	isdigit@c,w
  4583  0398  1C03               	skipc
  4584  0399  2B9C               	goto	l2164
  4585  039A  01A0               	clrf	_isdigit$677
  4586  039B  0AA0               	incf	_isdigit$677,f
  4587  039C                     l2164:	
  4588  039C  0C20               	rrf	_isdigit$677,w
  4589  039D  0008               	return
  4590  039E                     __end_of_isdigit:	
  4591                           
  4592                           	psect	text7
  4593  0309                     __ptext7:	
  4594 ;; *************** function ___wmul *****************
  4595 ;; Defined at:
  4596 ;;		line 15 in file "C:\Program Files (x86)\Microchip\xc8\v1.45\sources\common\Umul16.c"
  4597 ;; Parameters:    Size  Location     Type
  4598 ;;  multiplier      2    0[BANK0 ] unsigned int 
  4599 ;;  multiplicand    2    2[BANK0 ] unsigned int 
  4600 ;; Auto vars:     Size  Location     Type
  4601 ;;  product         2    4[BANK0 ] unsigned int 
  4602 ;; Return value:  Size  Location     Type
  4603 ;;                  2    0[BANK0 ] unsigned int 
  4604 ;; Registers used:
  4605 ;;		wreg, status,2, status,0
  4606 ;; Tracked objects:
  4607 ;;		On entry : 0/0
  4608 ;;		On exit  : 0/0
  4609 ;;		Unchanged: 0/0
  4610 ;; Data sizes:     COMMON   BANK0   BANK1   BANK2   BANK3   BANK4   BANK5   BANK6   BANK7   BANK8   BANK9
  4611 ;;      Params:         0       4       0       0       0       0       0       0       0       0       0
  4612 ;;      Locals:         0       2       0       0       0       0       0       0       0       0       0
  4613 ;;      Temps:          0       0       0       0       0       0       0       0       0       0       0
  4614 ;;      Totals:         0       6       0       0       0       0       0       0       0       0       0
  4615 ;;Total ram usage:        6 bytes
  4616 ;; Hardware stack levels used:    1
  4617 ;; Hardware stack levels required when called:    2
  4618 ;; This function calls:
  4619 ;;		Nothing
  4620 ;; This function is called by:
  4621 ;;		_atoi
  4622 ;; This function uses a non-reentrant model
  4623 ;;
  4624                           
  4625                           
  4626                           ;psect for function ___wmul
  4627  0309                     ___wmul:	
  4628                           
  4629                           ;incstack = 0
  4630                           ; Regs used in ___wmul: [wreg+status,2+status,0]
  4631  0309  0020               	movlb	0	; select bank0
  4632  030A  01A4               	clrf	___wmul@product
  4633  030B  01A5               	clrf	___wmul@product+1
  4634  030C                     l2144:	
  4635  030C  1C20               	btfss	___wmul@multiplier,0
  4636  030D  2B12               	goto	l302
  4637  030E  0822               	movf	___wmul@multiplicand,w
  4638  030F  07A4               	addwf	___wmul@product,f
  4639  0310  0823               	movf	___wmul@multiplicand+1,w
  4640  0311  3DA5               	addwfc	___wmul@product+1,f
  4641  0312                     l302:	
  4642  0312  3001               	movlw	1
  4643  0313                     u2425:	
  4644  0313  35A2               	lslf	___wmul@multiplicand,f
  4645  0314  0DA3               	rlf	___wmul@multiplicand+1,f
  4646  0315  0B89               	decfsz	9,f
  4647  0316  2B13               	goto	u2425
  4648  0317  3001               	movlw	1
  4649  0318                     u2435:	
  4650  0318  36A1               	lsrf	___wmul@multiplier+1,f
  4651  0319  0CA0               	rrf	___wmul@multiplier,f
  4652  031A  0B89               	decfsz	9,f
  4653  031B  2B18               	goto	u2435
  4654  031C  0820               	movf	___wmul@multiplier,w
  4655  031D  0421               	iorwf	___wmul@multiplier+1,w
  4656  031E  1D03               	btfss	3,2
  4657  031F  2B0C               	goto	l2144
  4658  0320  0825               	movf	___wmul@product+1,w
  4659  0321  00A1               	movwf	?___wmul+1
  4660  0322  0824               	movf	___wmul@product,w
  4661  0323  00A0               	movwf	?___wmul
  4662  0324  0008               	return
  4663  0325                     __end_of___wmul:	
  4664                           
  4665                           	psect	text8
  4666  03B3                     __ptext8:	
  4667 ;; *************** function _allPeripheralInit *****************
  4668 ;; Defined at:
  4669 ;;		line 782 in file "megaonoff.c"
  4670 ;; Parameters:    Size  Location     Type
  4671 ;;		None
  4672 ;; Auto vars:     Size  Location     Type
  4673 ;;		None
  4674 ;; Return value:  Size  Location     Type
  4675 ;;                  1    wreg      void 
  4676 ;; Registers used:
  4677 ;;		wreg, status,2, status,0, pclath, cstack
  4678 ;; Tracked objects:
  4679 ;;		On entry : 0/0
  4680 ;;		On exit  : 0/0
  4681 ;;		Unchanged: 0/0
  4682 ;; Data sizes:     COMMON   BANK0   BANK1   BANK2   BANK3   BANK4   BANK5   BANK6   BANK7   BANK8   BANK9
  4683 ;;      Params:         0       0       0       0       0       0       0       0       0       0       0
  4684 ;;      Locals:         0       0       0       0       0       0       0       0       0       0       0
  4685 ;;      Temps:          0       0       0       0       0       0       0       0       0       0       0
  4686 ;;      Totals:         0       0       0       0       0       0       0       0       0       0       0
  4687 ;;Total ram usage:        0 bytes
  4688 ;; Hardware stack levels used:    1
  4689 ;; Hardware stack levels required when called:    3
  4690 ;; This function calls:
  4691 ;;		_EUSART_Initialize
  4692 ;; This function is called by:
  4693 ;;		_main
  4694 ;; This function uses a non-reentrant model
  4695 ;;
  4696                           
  4697                           
  4698                           ;psect for function _allPeripheralInit
  4699  03B3                     _allPeripheralInit:	
  4700                           
  4701                           ;megaonoff.c: 783: EUSART_Initialize();
  4702                           
  4703                           ;incstack = 0
  4704                           ; Regs used in _allPeripheralInit: [wreg+status,2+status,0+pclath+cstack]
  4705  03B3  3183  2354         	fcall	_EUSART_Initialize
  4706  03B5  0008               	return
  4707  03B6                     __end_of_allPeripheralInit:	
  4708                           
  4709                           	psect	text9
  4710  0354                     __ptext9:	
  4711 ;; *************** function _EUSART_Initialize *****************
  4712 ;; Defined at:
  4713 ;;		line 790 in file "megaonoff.c"
  4714 ;; Parameters:    Size  Location     Type
  4715 ;;		None
  4716 ;; Auto vars:     Size  Location     Type
  4717 ;;		None
  4718 ;; Return value:  Size  Location     Type
  4719 ;;                  1    wreg      void 
  4720 ;; Registers used:
  4721 ;;		wreg
  4722 ;; Tracked objects:
  4723 ;;		On entry : 0/0
  4724 ;;		On exit  : 0/0
  4725 ;;		Unchanged: 0/0
  4726 ;; Data sizes:     COMMON   BANK0   BANK1   BANK2   BANK3   BANK4   BANK5   BANK6   BANK7   BANK8   BANK9
  4727 ;;      Params:         0       0       0       0       0       0       0       0       0       0       0
  4728 ;;      Locals:         0       0       0       0       0       0       0       0       0       0       0
  4729 ;;      Temps:          0       0       0       0       0       0       0       0       0       0       0
  4730 ;;      Totals:         0       0       0       0       0       0       0       0       0       0       0
  4731 ;;Total ram usage:        0 bytes
  4732 ;; Hardware stack levels used:    1
  4733 ;; Hardware stack levels required when called:    2
  4734 ;; This function calls:
  4735 ;;		Nothing
  4736 ;; This function is called by:
  4737 ;;		_allPeripheralInit
  4738 ;; This function uses a non-reentrant model
  4739 ;;
  4740                           
  4741                           
  4742                           ;psect for function _EUSART_Initialize
  4743  0354                     _EUSART_Initialize:	
  4744                           
  4745                           ;megaonoff.c: 791: PIE1bits.RC1IE = 0;
  4746                           
  4747                           ;incstack = 0
  4748                           ; Regs used in _EUSART_Initialize: [wreg]
  4749  0354  0021               	movlb	1	; select bank1
  4750  0355  1291               	bcf	17,5	;volatile
  4751                           
  4752                           ;megaonoff.c: 792: PIE1bits.TX1IE = 0;
  4753  0356  1211               	bcf	17,4	;volatile
  4754                           
  4755                           ;megaonoff.c: 797: BAUD1CON = 0x0A;
  4756  0357  300A               	movlw	10
  4757  0358  0023               	movlb	3	; select bank3
  4758  0359  009F               	movwf	31	;volatile
  4759                           
  4760                           ;megaonoff.c: 800: RC1STA = 0x90;
  4761  035A  3090               	movlw	144
  4762  035B  009D               	movwf	29	;volatile
  4763                           
  4764                           ;megaonoff.c: 803: TX1STA = 0x24;
  4765  035C  3024               	movlw	36
  4766  035D  009E               	movwf	30	;volatile
  4767                           
  4768                           ;megaonoff.c: 808: SP1BRGL = 0xA0;
  4769  035E  30A0               	movlw	160
  4770  035F  009B               	movwf	27	;volatile
  4771                           
  4772                           ;megaonoff.c: 810: SP1BRGH = 0x01;
  4773  0360  3001               	movlw	1
  4774  0361  009C               	movwf	28	;volatile
  4775                           
  4776                           ;megaonoff.c: 813: GIE = 1;
  4777  0362  178B               	bsf	11,7	;volatile
  4778                           
  4779                           ;megaonoff.c: 816: PEIE = 1;
  4780  0363  170B               	bsf	11,6	;volatile
  4781                           
  4782                           ;megaonoff.c: 819: PIE1bits.RC1IE = 1;
  4783  0364  0021               	movlb	1	; select bank1
  4784  0365  1691               	bsf	17,5	;volatile
  4785                           
  4786                           ;megaonoff.c: 822: TX1STAbits.TXEN = 1;
  4787  0366  0023               	movlb	3	; select bank3
  4788  0367  169E               	bsf	30,5	;volatile
  4789                           
  4790                           ;megaonoff.c: 825: RC1STAbits.SPEN = 1;
  4791  0368  179D               	bsf	29,7	;volatile
  4792  0369  0008               	return
  4793  036A                     __end_of_EUSART_Initialize:	
  4794                           
  4795                           	psect	text10
  4796  02A7                     __ptext10:	
  4797 ;; *************** function _GPIO_pin_Initialize *****************
  4798 ;; Defined at:
  4799 ;;		line 741 in file "megaonoff.c"
  4800 ;; Parameters:    Size  Location     Type
  4801 ;;		None
  4802 ;; Auto vars:     Size  Location     Type
  4803 ;;		None
  4804 ;; Return value:  Size  Location     Type
  4805 ;;                  1    wreg      void 
  4806 ;; Registers used:
  4807 ;;		status,2, status,0, pclath, cstack
  4808 ;; Tracked objects:
  4809 ;;		On entry : 0/0
  4810 ;;		On exit  : 0/0
  4811 ;;		Unchanged: 0/0
  4812 ;; Data sizes:     COMMON   BANK0   BANK1   BANK2   BANK3   BANK4   BANK5   BANK6   BANK7   BANK8   BANK9
  4813 ;;      Params:         0       0       0       0       0       0       0       0       0       0       0
  4814 ;;      Locals:         0       0       0       0       0       0       0       0       0       0       0
  4815 ;;      Temps:          0       0       0       0       0       0       0       0       0       0       0
  4816 ;;      Totals:         0       0       0       0       0       0       0       0       0       0       0
  4817 ;;Total ram usage:        0 bytes
  4818 ;; Hardware stack levels used:    1
  4819 ;; Hardware stack levels required when called:    3
  4820 ;; This function calls:
  4821 ;;		_clearAllPorts
  4822 ;;		_pinINIT_extra
  4823 ;; This function is called by:
  4824 ;;		_main
  4825 ;; This function uses a non-reentrant model
  4826 ;;
  4827                           
  4828                           
  4829                           ;psect for function _GPIO_pin_Initialize
  4830  02A7                     _GPIO_pin_Initialize:	
  4831                           
  4832                           ;megaonoff.c: 742: clearAllPorts();
  4833                           
  4834                           ;incstack = 0
  4835                           ; Regs used in _GPIO_pin_Initialize: [status,2+status,0+pclath+cstack]
  4836  02A7  3183  237F  3182   	fcall	_clearAllPorts
  4837                           
  4838                           ;megaonoff.c: 743: pinINIT_extra();
  4839  02AA  3183  236A  3182   	fcall	_pinINIT_extra
  4840                           
  4841                           ;megaonoff.c: 744: TRISFbits.TRISF2 = 1;
  4842  02AD  0026               	movlb	6	; select bank6
  4843  02AE  150C               	bsf	12,2	;volatile
  4844                           
  4845                           ;megaonoff.c: 745: TRISFbits.TRISF3 = 1;
  4846  02AF  158C               	bsf	12,3	;volatile
  4847                           
  4848                           ;megaonoff.c: 746: TRISFbits.TRISF4 = 1;
  4849  02B0  160C               	bsf	12,4	;volatile
  4850                           
  4851                           ;megaonoff.c: 747: TRISFbits.TRISF5 = 1;
  4852  02B1  168C               	bsf	12,5	;volatile
  4853                           
  4854                           ;megaonoff.c: 748: TRISFbits.TRISF6 = 1;
  4855  02B2  170C               	bsf	12,6	;volatile
  4856                           
  4857                           ;megaonoff.c: 749: TRISDbits.TRISD7 = 1;
  4858  02B3  0021               	movlb	1	; select bank1
  4859  02B4  178F               	bsf	15,7	;volatile
  4860                           
  4861                           ;megaonoff.c: 750: TRISDbits.TRISD6 = 1;
  4862  02B5  170F               	bsf	15,6	;volatile
  4863                           
  4864                           ;megaonoff.c: 751: TRISDbits.TRISD5 = 1;
  4865  02B6  168F               	bsf	15,5	;volatile
  4866                           
  4867                           ;megaonoff.c: 752: TRISDbits.TRISD4=1;
  4868  02B7  160F               	bsf	15,4	;volatile
  4869                           
  4870                           ;megaonoff.c: 753: TRISDbits.TRISD3=1;
  4871  02B8  158F               	bsf	15,3	;volatile
  4872                           
  4873                           ;megaonoff.c: 754: TRISDbits.TRISD2=1;
  4874  02B9  150F               	bsf	15,2	;volatile
  4875                           
  4876                           ;megaonoff.c: 757: TRISBbits.TRISB1 = 0;
  4877  02BA  108D               	bcf	13,1	;volatile
  4878                           
  4879                           ;megaonoff.c: 758: TRISCbits.TRISC1 = 0;
  4880  02BB  108E               	bcf	14,1	;volatile
  4881                           
  4882                           ;megaonoff.c: 759: TRISAbits.TRISA0 = 0;
  4883  02BC  100C               	bcf	12,0	;volatile
  4884                           
  4885                           ;megaonoff.c: 760: TRISFbits.TRISF1 = 0;
  4886  02BD  0026               	movlb	6	; select bank6
  4887  02BE  108C               	bcf	12,1	;volatile
  4888                           
  4889                           ;megaonoff.c: 761: TRISAbits.TRISA3 = 0;
  4890  02BF  0021               	movlb	1	; select bank1
  4891  02C0  118C               	bcf	12,3	;volatile
  4892                           
  4893                           ;megaonoff.c: 762: TRISAbits.TRISA1 = 0;
  4894  02C1  108C               	bcf	12,1	;volatile
  4895                           
  4896                           ;megaonoff.c: 763: TRISAbits.TRISA2 = 0;
  4897  02C2  110C               	bcf	12,2	;volatile
  4898                           
  4899                           ;megaonoff.c: 764: TRISBbits.TRISB3 = 0;
  4900  02C3  118D               	bcf	13,3	;volatile
  4901                           
  4902                           ;megaonoff.c: 765: TRISAbits.TRISA5=0;
  4903  02C4  128C               	bcf	12,5	;volatile
  4904                           
  4905                           ;megaonoff.c: 766: TRISCbits.TRISC0=0;
  4906  02C5  100E               	bcf	14,0	;volatile
  4907                           
  4908                           ;megaonoff.c: 767: TRISFbits.TRISF0=0;
  4909  02C6  0026               	movlb	6	; select bank6
  4910  02C7  100C               	bcf	12,0	;volatile
  4911                           
  4912                           ;megaonoff.c: 773: TRISCbits.TRISC6 = 0;
  4913  02C8  0021               	movlb	1	; select bank1
  4914  02C9  130E               	bcf	14,6	;volatile
  4915                           
  4916                           ;megaonoff.c: 774: TRISCbits.TRISC7 = 1;
  4917  02CA  178E               	bsf	14,7	;volatile
  4918                           
  4919                           ;megaonoff.c: 776: clearAllPorts();
  4920  02CB  3183  237F         	fcall	_clearAllPorts
  4921  02CD  0008               	return
  4922  02CE                     __end_of_GPIO_pin_Initialize:	
  4923                           
  4924                           	psect	text11
  4925  036A                     __ptext11:	
  4926 ;; *************** function _pinINIT_extra *****************
  4927 ;; Defined at:
  4928 ;;		line 890 in file "megaonoff.c"
  4929 ;; Parameters:    Size  Location     Type
  4930 ;;		None
  4931 ;; Auto vars:     Size  Location     Type
  4932 ;;		None
  4933 ;; Return value:  Size  Location     Type
  4934 ;;                  1    wreg      void 
  4935 ;; Registers used:
  4936 ;;		status,2
  4937 ;; Tracked objects:
  4938 ;;		On entry : 0/0
  4939 ;;		On exit  : 0/0
  4940 ;;		Unchanged: 0/0
  4941 ;; Data sizes:     COMMON   BANK0   BANK1   BANK2   BANK3   BANK4   BANK5   BANK6   BANK7   BANK8   BANK9
  4942 ;;      Params:         0       0       0       0       0       0       0       0       0       0       0
  4943 ;;      Locals:         0       0       0       0       0       0       0       0       0       0       0
  4944 ;;      Temps:          0       0       0       0       0       0       0       0       0       0       0
  4945 ;;      Totals:         0       0       0       0       0       0       0       0       0       0       0
  4946 ;;Total ram usage:        0 bytes
  4947 ;; Hardware stack levels used:    1
  4948 ;; Hardware stack levels required when called:    2
  4949 ;; This function calls:
  4950 ;;		Nothing
  4951 ;; This function is called by:
  4952 ;;		_GPIO_pin_Initialize
  4953 ;; This function uses a non-reentrant model
  4954 ;;
  4955                           
  4956                           
  4957                           ;psect for function _pinINIT_extra
  4958  036A                     _pinINIT_extra:	
  4959                           
  4960                           ;megaonoff.c: 891: ANSELG=0x00; WPUG = 0;
  4961                           
  4962                           ;incstack = 0
  4963                           ; Regs used in _pinINIT_extra: [status,2]
  4964  036A  0028               	movlb	8	; select bank8
  4965  036B  018D               	clrf	13	;volatile
  4966  036C  0029               	movlb	9	; select bank9
  4967  036D  018D               	clrf	13	;volatile
  4968                           
  4969                           ;megaonoff.c: 893: ANSELF=0x00;
  4970  036E  0028               	movlb	8	; select bank8
  4971  036F  018C               	clrf	12	;volatile
  4972                           
  4973                           ;megaonoff.c: 895: ANSELE=0x00; WPUE=0x00;
  4974  0370  0023               	movlb	3	; select bank3
  4975  0371  0190               	clrf	16	;volatile
  4976  0372  0024               	movlb	4	; select bank4
  4977  0373  0190               	clrf	16	;volatile
  4978                           
  4979                           ;megaonoff.c: 897: ANSELD=0x00; WPUD=0x00;
  4980  0374  0023               	movlb	3	; select bank3
  4981  0375  018F               	clrf	15	;volatile
  4982  0376  0024               	movlb	4	; select bank4
  4983  0377  018F               	clrf	15	;volatile
  4984                           
  4985                           ;megaonoff.c: 899: ANSELB=0x00; WPUB=0x00;
  4986  0378  0023               	movlb	3	; select bank3
  4987  0379  018D               	clrf	13	;volatile
  4988  037A  0024               	movlb	4	; select bank4
  4989  037B  018D               	clrf	13	;volatile
  4990                           
  4991                           ;megaonoff.c: 901: ANSELA=0x00;
  4992  037C  0023               	movlb	3	; select bank3
  4993  037D  018C               	clrf	12	;volatile
  4994  037E  0008               	return
  4995  037F                     __end_of_pinINIT_extra:	
  4996                           
  4997                           	psect	text12
  4998  037F                     __ptext12:	
  4999 ;; *************** function _clearAllPorts *****************
  5000 ;; Defined at:
  5001 ;;		line 907 in file "megaonoff.c"
  5002 ;; Parameters:    Size  Location     Type
  5003 ;;		None
  5004 ;; Auto vars:     Size  Location     Type
  5005 ;;		None
  5006 ;; Return value:  Size  Location     Type
  5007 ;;                  1    wreg      void 
  5008 ;; Registers used:
  5009 ;;		None
  5010 ;; Tracked objects:
  5011 ;;		On entry : 0/0
  5012 ;;		On exit  : 0/0
  5013 ;;		Unchanged: 0/0
  5014 ;; Data sizes:     COMMON   BANK0   BANK1   BANK2   BANK3   BANK4   BANK5   BANK6   BANK7   BANK8   BANK9
  5015 ;;      Params:         0       0       0       0       0       0       0       0       0       0       0
  5016 ;;      Locals:         0       0       0       0       0       0       0       0       0       0       0
  5017 ;;      Temps:          0       0       0       0       0       0       0       0       0       0       0
  5018 ;;      Totals:         0       0       0       0       0       0       0       0       0       0       0
  5019 ;;Total ram usage:        0 bytes
  5020 ;; Hardware stack levels used:    1
  5021 ;; Hardware stack levels required when called:    2
  5022 ;; This function calls:
  5023 ;;		Nothing
  5024 ;; This function is called by:
  5025 ;;		_GPIO_pin_Initialize
  5026 ;; This function uses a non-reentrant model
  5027 ;;
  5028                           
  5029                           
  5030                           ;psect for function _clearAllPorts
  5031  037F                     _clearAllPorts:	
  5032                           
  5033                           ;megaonoff.c: 908: PORTBbits.RB1=0;
  5034                           
  5035                           ;incstack = 0
  5036                           ; Regs used in _clearAllPorts: []
  5037  037F  0020               	movlb	0	; select bank0
  5038  0380  108D               	bcf	13,1	;volatile
  5039                           
  5040                           ;megaonoff.c: 909: PORTCbits.RC1=0;
  5041  0381  108E               	bcf	14,1	;volatile
  5042                           
  5043                           ;megaonoff.c: 910: PORTAbits.RA0=0;
  5044  0382  100C               	bcf	12,0	;volatile
  5045                           
  5046                           ;megaonoff.c: 911: PORTFbits.RF1=0;
  5047  0383  0025               	movlb	5	; select bank5
  5048  0384  108C               	bcf	12,1	;volatile
  5049                           
  5050                           ;megaonoff.c: 912: PORTAbits.RA3=0;
  5051  0385  0020               	movlb	0	; select bank0
  5052  0386  118C               	bcf	12,3	;volatile
  5053                           
  5054                           ;megaonoff.c: 913: PORTAbits.RA1=0;
  5055  0387  108C               	bcf	12,1	;volatile
  5056                           
  5057                           ;megaonoff.c: 914: PORTAbits.RA2=0;
  5058  0388  110C               	bcf	12,2	;volatile
  5059                           
  5060                           ;megaonoff.c: 915: PORTBbits.RB3=0;
  5061  0389  118D               	bcf	13,3	;volatile
  5062                           
  5063                           ;megaonoff.c: 916: PORTAbits.RA5=0;
  5064  038A  128C               	bcf	12,5	;volatile
  5065                           
  5066                           ;megaonoff.c: 917: PORTCbits.RC0=0;
  5067  038B  100E               	bcf	14,0	;volatile
  5068                           
  5069                           ;megaonoff.c: 918: PORTFbits.RF0=0;
  5070  038C  0025               	movlb	5	; select bank5
  5071  038D  100C               	bcf	12,0	;volatile
  5072  038E  0008               	return
  5073  038F                     __end_of_clearAllPorts:	
  5074                           
  5075                           	psect	intentry
  5076  0004                     __pintentry:	
  5077 ;; *************** function _isr *****************
  5078 ;; Defined at:
  5079 ;;		line 169 in file "megaonoff.c"
  5080 ;; Parameters:    Size  Location     Type
  5081 ;;		None
  5082 ;; Auto vars:     Size  Location     Type
  5083 ;;		None
  5084 ;; Return value:  Size  Location     Type
  5085 ;;                  1    wreg      void 
  5086 ;; Registers used:
  5087 ;;		wreg, fsr1l, fsr1h, status,2, status,0, pclath, cstack
  5088 ;; Tracked objects:
  5089 ;;		On entry : 0/0
  5090 ;;		On exit  : 0/0
  5091 ;;		Unchanged: 0/0
  5092 ;; Data sizes:     COMMON   BANK0   BANK1   BANK2   BANK3   BANK4   BANK5   BANK6   BANK7   BANK8   BANK9
  5093 ;;      Params:         0       0       0       0       0       0       0       0       0       0       0
  5094 ;;      Locals:         0       0       0       0       0       0       0       0       0       0       0
  5095 ;;      Temps:          2       0       0       0       0       0       0       0       0       0       0
  5096 ;;      Totals:         2       0       0       0       0       0       0       0       0       0       0
  5097 ;;Total ram usage:        2 bytes
  5098 ;; Hardware stack levels used:    1
  5099 ;; Hardware stack levels required when called:    1
  5100 ;; This function calls:
  5101 ;;		_errorsISR
  5102 ;; This function is called by:
  5103 ;;		Interrupt level 1
  5104 ;; This function uses a non-reentrant model
  5105 ;;
  5106                           
  5107  0004                     _isr:	
  5108                           
  5109                           ;incstack = 0
  5110  0004  147E               	bsf	126,0	;set compiler interrupt flag (level 1)
  5111                           
  5112                           ; Regs used in _isr: [wreg+fsr1l+fsr1h+status,2+status,0+pclath+cstack]
  5113  0005  3180               	pagesel	$
  5114  0006  0020               	movlb	0	; select bank0
  5115  0007  087F               	movf	127,w
  5116  0008  00F5               	movwf	??_isr+1
  5117                           
  5118                           ;megaonoff.c: 172: if(RC1IF){
  5119  0009  1E91               	btfss	17,5	;volatile
  5120  000A  2864               	goto	i1l166
  5121                           
  5122                           ;megaonoff.c: 173: if(RC1STAbits.OERR){
  5123  000B  0023               	movlb	3	; select bank3
  5124  000C  1C9D               	btfss	29,1	;volatile
  5125  000D  2825               	goto	i1l1684
  5126                           
  5127                           ;megaonoff.c: 174: RC1STAbits.CREN = 0;
  5128  000E  121D               	bcf	29,4	;volatile
  5129                           
  5130                           ;megaonoff.c: 175: RC1STAbits.CREN = 1;
  5131  000F  161D               	bsf	29,4	;volatile
  5132                           
  5133                           ;megaonoff.c: 177: ErrorNames[0]='E'; ErrorNames[1]='R'; ErrorNames[2]='O'; ErrorNames[3
      +                          ]='V';
  5134  0010  3045               	movlw	69
  5135  0011  00F4               	movwf	??_isr
  5136  0012  0874               	movf	??_isr,w
  5137  0013  0020               	movlb	0	; select bank0
  5138  0014  00EB               	movwf	_ErrorNames
  5139  0015  3052               	movlw	82
  5140  0016  00F4               	movwf	??_isr
  5141  0017  0874               	movf	??_isr,w
  5142  0018  00EC               	movwf	_ErrorNames+1
  5143  0019  304F               	movlw	79
  5144  001A  00F4               	movwf	??_isr
  5145  001B  0874               	movf	??_isr,w
  5146  001C  00ED               	movwf	_ErrorNames+2
  5147  001D  3056               	movlw	86
  5148  001E  00F4               	movwf	??_isr
  5149  001F  0874               	movf	??_isr,w
  5150  0020  00EE               	movwf	_ErrorNames+3
  5151                           
  5152                           ;megaonoff.c: 178: errorsISR(ErrorNames);
  5153  0021  306B               	movlw	(low (_ErrorNames| 0))& (0+255)
  5154  0022  3183  2325  3180   	fcall	_errorsISR
  5155  0025                     i1l1684:	
  5156                           
  5157                           ;megaonoff.c: 179: }
  5158                           ;megaonoff.c: 181: mainReceivedDataBuffer[mainReceivedDataPosition]=RC1REG;
  5159  0025  0023               	movlb	3	; select bank3
  5160  0026  0819               	movf	25,w	;volatile
  5161  0027  00F4               	movwf	??_isr
  5162  0028  0878               	movf	_mainReceivedDataPosition,w
  5163  0029  3EA0               	addlw	(low (_mainReceivedDataBuffer| 0))& (0+255)
  5164  002A  0086               	movwf	6
  5165  002B  0187               	clrf	7
  5166  002C  0874               	movf	??_isr,w
  5167  002D  0081               	movwf	1
  5168                           
  5169                           ;megaonoff.c: 185: if(mainReceivedDataBuffer[0]=='%'){
  5170  002E  3025               	movlw	37
  5171  002F  0021               	movlb	1	; select bank1
  5172  0030  0620               	xorwf	_mainReceivedDataBuffer^(0+128),w
  5173  0031  1D03               	btfss	3,2
  5174  0032  284B               	goto	i1l163
  5175                           
  5176                           ;megaonoff.c: 186: mainReceivedDataPosition++;
  5177  0033  3001               	movlw	1
  5178  0034  07F8               	addwf	_mainReceivedDataPosition,f
  5179  0035  3000               	movlw	0
  5180  0036  3DF9               	addwfc	_mainReceivedDataPosition+1,f
  5181                           
  5182                           ;megaonoff.c: 187: if(mainReceivedDataPosition>15){
  5183  0037  0879               	movf	_mainReceivedDataPosition+1,w
  5184  0038  3A80               	xorlw	128
  5185  0039  00F4               	movwf	??_isr
  5186  003A  3080               	movlw	128
  5187  003B  0274               	subwf	??_isr,w
  5188  003C  1D03               	skipz
  5189  003D  2840               	goto	u145_25
  5190  003E  3010               	movlw	16
  5191  003F  0278               	subwf	_mainReceivedDataPosition,w
  5192  0040                     u145_25:	
  5193  0040  1C03               	skipc
  5194  0041  2864               	goto	i1l166
  5195                           
  5196                           ;megaonoff.c: 188: mainDataReceived=1;
  5197  0042  3001               	movlw	1
  5198  0043  0020               	movlb	0	; select bank0
  5199  0044  00E5               	movwf	_mainDataReceived
  5200  0045  3000               	movlw	0
  5201  0046  00E6               	movwf	_mainDataReceived+1
  5202                           
  5203                           ;megaonoff.c: 189: mainReceivedDataPosition=0;
  5204  0047  01F8               	clrf	_mainReceivedDataPosition
  5205  0048  01F9               	clrf	_mainReceivedDataPosition+1
  5206                           
  5207                           ;megaonoff.c: 190: RC1IF=0;
  5208  0049  1291               	bcf	17,5	;volatile
  5209                           
  5210                           ;megaonoff.c: 191: }
  5211                           ;megaonoff.c: 192: }
  5212  004A  2864               	goto	i1l166
  5213  004B                     i1l163:	
  5214                           
  5215                           ;megaonoff.c: 193: else{
  5216                           ;megaonoff.c: 194: RC1STAbits.CREN = 0;
  5217  004B  0023               	movlb	3	; select bank3
  5218  004C  121D               	bcf	29,4	;volatile
  5219                           
  5220                           ;megaonoff.c: 195: RC1STAbits.CREN = 1;
  5221  004D  161D               	bsf	29,4	;volatile
  5222                           
  5223                           ;megaonoff.c: 196: mainReceivedDataPosition=0;
  5224  004E  01F8               	clrf	_mainReceivedDataPosition
  5225  004F  01F9               	clrf	_mainReceivedDataPosition+1
  5226                           
  5227                           ;megaonoff.c: 198: ErrorNames[0]='E'; ErrorNames[1]='R'; ErrorNames[2]='R'; ErrorNames[3
      +                          ]='X';
  5228  0050  3045               	movlw	69
  5229  0051  00F4               	movwf	??_isr
  5230  0052  0874               	movf	??_isr,w
  5231  0053  0020               	movlb	0	; select bank0
  5232  0054  00EB               	movwf	_ErrorNames
  5233  0055  3052               	movlw	82
  5234  0056  00F4               	movwf	??_isr
  5235  0057  0874               	movf	??_isr,w
  5236  0058  00EC               	movwf	_ErrorNames+1
  5237  0059  3052               	movlw	82
  5238  005A  00F4               	movwf	??_isr
  5239  005B  0874               	movf	??_isr,w
  5240  005C  00ED               	movwf	_ErrorNames+2
  5241  005D  3058               	movlw	88
  5242  005E  00F4               	movwf	??_isr
  5243  005F  0874               	movf	??_isr,w
  5244  0060  00EE               	movwf	_ErrorNames+3
  5245                           
  5246                           ;megaonoff.c: 199: errorsISR(ErrorNames);
  5247  0061  306B               	movlw	(low (_ErrorNames| 0))& (0+255)
  5248  0062  3183  2325         	fcall	_errorsISR
  5249  0064                     i1l166:	
  5250  0064  0875               	movf	??_isr+1,w
  5251  0065  0020               	movlb	0	; select bank0
  5252  0066  00FF               	movwf	127
  5253  0067  107E               	bcf	126,0	;clear compiler interrupt flag (level 1)
  5254  0068  0009               	retfie
  5255  0069                     __end_of_isr:	
  5256                           
  5257                           	psect	text14
  5258  0325                     __ptext14:	
  5259 ;; *************** function _errorsISR *****************
  5260 ;; Defined at:
  5261 ;;		line 848 in file "megaonoff.c"
  5262 ;; Parameters:    Size  Location     Type
  5263 ;;  errNum          1    wreg     PTR unsigned char 
  5264 ;;		 -> ErrorNames(5), 
  5265 ;; Auto vars:     Size  Location     Type
  5266 ;;  errNum          1    3[COMMON] PTR unsigned char 
  5267 ;;		 -> ErrorNames(5), 
  5268 ;;  Tx_count        2    1[COMMON] int 
  5269 ;; Return value:  Size  Location     Type
  5270 ;;                  1    wreg      void 
  5271 ;; Registers used:
  5272 ;;		wreg, fsr1l, fsr1h, status,2, status,0
  5273 ;; Tracked objects:
  5274 ;;		On entry : 0/0
  5275 ;;		On exit  : 0/0
  5276 ;;		Unchanged: 0/0
  5277 ;; Data sizes:     COMMON   BANK0   BANK1   BANK2   BANK3   BANK4   BANK5   BANK6   BANK7   BANK8   BANK9
  5278 ;;      Params:         0       0       0       0       0       0       0       0       0       0       0
  5279 ;;      Locals:         3       0       0       0       0       0       0       0       0       0       0
  5280 ;;      Temps:          1       0       0       0       0       0       0       0       0       0       0
  5281 ;;      Totals:         4       0       0       0       0       0       0       0       0       0       0
  5282 ;;Total ram usage:        4 bytes
  5283 ;; Hardware stack levels used:    1
  5284 ;; This function calls:
  5285 ;;		Nothing
  5286 ;; This function is called by:
  5287 ;;		_isr
  5288 ;; This function uses a non-reentrant model
  5289 ;;
  5290                           
  5291                           
  5292                           ;psect for function _errorsISR
  5293  0325                     _errorsISR:	
  5294                           
  5295                           ;incstack = 0
  5296                           ; Regs used in _errorsISR: [wreg+fsr1l+fsr1h+status,2+status,0]
  5297                           ;errorsISR@errNum stored from wreg
  5298  0325  00F3               	movwf	errorsISR@errNum
  5299                           
  5300                           ;megaonoff.c: 849: int Tx_count=0;
  5301  0326  01F1               	clrf	errorsISR@Tx_count
  5302  0327  01F2               	clrf	errorsISR@Tx_count+1
  5303  0328                     i1l1520:	
  5304                           ;megaonoff.c: 850: while(Tx_count!=4)
  5305                           
  5306  0328  3004               	movlw	4
  5307  0329  0671               	xorwf	errorsISR@Tx_count,w
  5308  032A  0472               	iorwf	errorsISR@Tx_count+1,w
  5309  032B  1903               	btfsc	3,2
  5310  032C  0008               	return
  5311  032D                     i1l265:	
  5312                           ;megaonoff.c: 851: {
  5313                           ;megaonoff.c: 852: while (!TX1STAbits.TRMT);
  5314                           
  5315  032D  0023               	movlb	3	; select bank3
  5316  032E  1C9E               	btfss	30,1	;volatile
  5317  032F  2B2D               	goto	i1l265
  5318                           
  5319                           ;megaonoff.c: 853: TX1REG = *errNum;
  5320  0330  0873               	movf	errorsISR@errNum,w
  5321  0331  0086               	movwf	6
  5322  0332  0187               	clrf	7
  5323  0333  0801               	movf	1,w
  5324  0334  009A               	movwf	26	;volatile
  5325                           
  5326                           ;megaonoff.c: 854: *errNum++;
  5327  0335  3001               	movlw	1
  5328  0336  00F0               	movwf	??_errorsISR
  5329  0337  0870               	movf	??_errorsISR,w
  5330  0338  07F3               	addwf	errorsISR@errNum,f
  5331                           
  5332                           ;megaonoff.c: 855: Tx_count++;
  5333  0339  3001               	movlw	1
  5334  033A  07F1               	addwf	errorsISR@Tx_count,f
  5335  033B  3000               	movlw	0
  5336  033C  3DF2               	addwfc	errorsISR@Tx_count+1,f
  5337  033D  2B28               	goto	i1l1520
  5338  033E                     __end_of_errorsISR:	
  5339  007E                     btemp	set	126	;btemp
  5340  007E                     int$flags	set	126
  5341  007E                     wtemp0	set	126


Data Sizes:
    Strings     0
    Constant    0
    Data        125
    BSS         30
    Persistent  0
    Stack       0

Auto Spaces:
    Space          Size  Autos    Used
    COMMON           14      6      12
    BANK0            80     45      80
    BANK1            80      0      56
    BANK2            80      0      58
    BANK3            80      0       0
    BANK4            80      0       0
    BANK5            80      0       0
    BANK6            80      0       0
    BANK7            80      0       0
    BANK8            80      0       0
    BANK9            32      0       0

Pointer List with Targets:

    atoi@s	PTR const unsigned char  size(1) Largest target is 2
		 -> applianceControl@dimmerSpeedStringBuffer(BANK0[2]), applianceControl@switchNumberStringBuffer(BANK0[2]), 

    sendAcknowledgment@currentStateBuffer	PTR unsigned char  size(1) Largest target is 58
		 -> currentStateBuffer(BANK2[58]), 

    errorsMain@errNum	PTR unsigned char  size(1) Largest target is 5
		 -> ErrorNames(BANK0[5]), 

    errorsISR@errNum	PTR unsigned char  size(1) Largest target is 5
		 -> ErrorNames(BANK0[5]), 


Critical Paths under _main in COMMON

    None.

Critical Paths under _isr in COMMON

    _isr->_errorsISR

Critical Paths under _main in BANK0

    _main->_applianceControl
    _applianceControl->_atoi
    _atoi->___wmul

Critical Paths under _isr in BANK0

    None.

Critical Paths under _main in BANK1

    None.

Critical Paths under _isr in BANK1

    None.

Critical Paths under _main in BANK2

    None.

Critical Paths under _isr in BANK2

    None.

Critical Paths under _main in BANK3

    None.

Critical Paths under _isr in BANK3

    None.

Critical Paths under _main in BANK4

    None.

Critical Paths under _isr in BANK4

    None.

Critical Paths under _main in BANK5

    None.

Critical Paths under _isr in BANK5

    None.

Critical Paths under _main in BANK6

    None.

Critical Paths under _isr in BANK6

    None.

Critical Paths under _main in BANK7

    None.

Critical Paths under _isr in BANK7

    None.

Critical Paths under _main in BANK8

    None.

Critical Paths under _isr in BANK8

    None.

Critical Paths under _main in BANK9

    None.

Critical Paths under _isr in BANK9

    None.

Call Graph Tables:

 ---------------------------------------------------------------------------------
 (Depth) Function   	        Calls       Base Space   Used Autos Params    Refs
 ---------------------------------------------------------------------------------
 (0) _main                                                10    10      0    3654
                                             35 BANK0     10    10      0
                _GPIO_pin_Initialize
                  _allPeripheralInit
                   _applianceControl
             _copyReceivedDataBuffer
                         _errorsMain
 ---------------------------------------------------------------------------------
 (1) _errorsMain                                           4     4      0     104
                                              0 BANK0      4     4      0
 ---------------------------------------------------------------------------------
 (1) _copyReceivedDataBuffer                               3     3      0     164
                                              0 BANK0      3     3      0
 ---------------------------------------------------------------------------------
 (1) _applianceControl                                    21    15      6    2536
                                             14 BANK0     21    15      6
                               _atoi
                 _sendAcknowledgment
 ---------------------------------------------------------------------------------
 (2) _sendAcknowledgment                                   4     4      0     104
                                              0 BANK0      4     4      0
 ---------------------------------------------------------------------------------
 (2) _atoi                                                 8     6      2     789
                                              6 BANK0      8     6      2
                             ___wmul
                            _isdigit
 ---------------------------------------------------------------------------------
 (3) _isdigit                                              2     2      0      99
                                              0 BANK0      2     2      0
 ---------------------------------------------------------------------------------
 (3) ___wmul                                               6     2      4     290
                                              0 BANK0      6     2      4
 ---------------------------------------------------------------------------------
 (1) _allPeripheralInit                                    0     0      0       0
                  _EUSART_Initialize
 ---------------------------------------------------------------------------------
 (2) _EUSART_Initialize                                    0     0      0       0
 ---------------------------------------------------------------------------------
 (1) _GPIO_pin_Initialize                                  0     0      0       0
                      _clearAllPorts
                      _pinINIT_extra
 ---------------------------------------------------------------------------------
 (2) _pinINIT_extra                                        0     0      0       0
 ---------------------------------------------------------------------------------
 (2) _clearAllPorts                                        0     0      0       0
 ---------------------------------------------------------------------------------
 Estimated maximum stack depth 3
 ---------------------------------------------------------------------------------
 (Depth) Function   	        Calls       Base Space   Used Autos Params    Refs
 ---------------------------------------------------------------------------------
 (4) _isr                                                  2     2      0     107
                                              4 COMMON     2     2      0
                          _errorsISR
 ---------------------------------------------------------------------------------
 (5) _errorsISR                                            4     4      0     107
                                              0 COMMON     4     4      0
 ---------------------------------------------------------------------------------
 Estimated maximum stack depth 5
 ---------------------------------------------------------------------------------

 Call Graph Graphs:

 _main (ROOT)
   _GPIO_pin_Initialize
     _clearAllPorts
     _pinINIT_extra
   _allPeripheralInit
     _EUSART_Initialize
   _applianceControl
     _atoi
       ___wmul
       _isdigit
     _sendAcknowledgment
   _copyReceivedDataBuffer
   _errorsMain

 _isr (ROOT)
   _errorsISR

 Address spaces:
Name               Size   Autos  Total    Cost      Usage
BIGRAM             2F0      0       0       0        0.0%
NULL                 0      0       0       0        0.0%
CODE                 0      0       0       0        0.0%
BITCOMMON            E      0       0       1        0.0%
BITSFR0              0      0       0       1        0.0%
SFR0                 0      0       0       1        0.0%
COMMON               E      6       C       2       85.7%
BITSFR1              0      0       0       2        0.0%
SFR1                 0      0       0       2        0.0%
BITSFR2              0      0       0       3        0.0%
SFR2                 0      0       0       3        0.0%
STACK                0      0       0       3        0.0%
BITSFR3              0      0       0       4        0.0%
SFR3                 0      0       0       4        0.0%
ABS                  0      0      CE       4        0.0%
BITBANK0            50      0       0       5        0.0%
BITSFR4              0      0       0       5        0.0%
SFR4                 0      0       0       5        0.0%
BANK0               50     2D      50       6      100.0%
BITSFR5              0      0       0       6        0.0%
SFR5                 0      0       0       6        0.0%
BITBANK1            50      0       0       7        0.0%
BITSFR6              0      0       0       7        0.0%
SFR6                 0      0       0       7        0.0%
BANK1               50      0      38       8       70.0%
BITSFR7              0      0       0       8        0.0%
SFR7                 0      0       0       8        0.0%
BITBANK2            50      0       0       9        0.0%
BITSFR8              0      0       0       9        0.0%
SFR8                 0      0       0       9        0.0%
BANK2               50      0      3A      10       72.5%
BITSFR9              0      0       0      10        0.0%
SFR9                 0      0       0      10        0.0%
BITBANK3            50      0       0      11        0.0%
BITSFR10             0      0       0      11        0.0%
SFR10                0      0       0      11        0.0%
BANK3               50      0       0      12        0.0%
BITSFR11             0      0       0      12        0.0%
SFR11                0      0       0      12        0.0%
BITBANK4            50      0       0      13        0.0%
BITSFR12             0      0       0      13        0.0%
SFR12                0      0       0      13        0.0%
BANK4               50      0       0      14        0.0%
BITSFR13             0      0       0      14        0.0%
SFR13                0      0       0      14        0.0%
BITBANK5            50      0       0      15        0.0%
BITSFR14             0      0       0      15        0.0%
SFR14                0      0       0      15        0.0%
BANK5               50      0       0      16        0.0%
BITSFR15             0      0       0      16        0.0%
SFR15                0      0       0      16        0.0%
BITBANK6            50      0       0      17        0.0%
BITSFR16             0      0       0      17        0.0%
SFR16                0      0       0      17        0.0%
BANK6               50      0       0      18        0.0%
BITSFR17             0      0       0      18        0.0%
SFR17                0      0       0      18        0.0%
BITBANK7            50      0       0      19        0.0%
BITSFR18             0      0       0      19        0.0%
SFR18                0      0       0      19        0.0%
BANK7               50      0       0      20        0.0%
BITSFR19             0      0       0      20        0.0%
SFR19                0      0       0      20        0.0%
BITBANK8            50      0       0      21        0.0%
BITSFR20             0      0       0      21        0.0%
SFR20                0      0       0      21        0.0%
BANK8               50      0       0      22        0.0%
BITSFR21             0      0       0      22        0.0%
SFR21                0      0       0      22        0.0%
BITBANK9            20      0       0      23        0.0%
BITSFR22             0      0       0      23        0.0%
SFR22                0      0       0      23        0.0%
BANK9               20      0       0      24        0.0%
BITSFR23             0      0       0      24        0.0%
SFR23                0      0       0      24        0.0%
BITSFR24             0      0       0      25        0.0%
SFR24                0      0       0      25        0.0%
DATA                 0      0      CE      25        0.0%
BITSFR25             0      0       0      26        0.0%
SFR25                0      0       0      26        0.0%
BITSFR26             0      0       0      27        0.0%
SFR26                0      0       0      27        0.0%
BITSFR27             0      0       0      28        0.0%
SFR27                0      0       0      28        0.0%
BITSFR28             0      0       0      29        0.0%
SFR28                0      0       0      29        0.0%
BITSFR29             0      0       0      30        0.0%
SFR29                0      0       0      30        0.0%
BITSFR30             0      0       0      31        0.0%
SFR30                0      0       0      31        0.0%
BITSFR31             0      0       0      32        0.0%
SFR31                0      0       0      32        0.0%


Microchip Technology PIC Macro Assembler V1.45 build -152302408 
Symbol Table                                                                                   Wed Sep 19 15:32:40 2018

                 __size_of_allPeripheralInit 0003                                            pc 0002  
                                __CFG_CP$OFF 0000                                           _M1 0063  
                                         _M2 0061                                           _M3 005F  
                                         _M4 005D                                           _M5 005B  
                                         _M6 0059                                           _M7 0057  
                                         _M8 0055                                           _M9 0053  
                        ___wmul@multiplicand 0022                 applianceControl@integerSpeed 0036  
                                        l302 0312                                          _M10 0051  
                                        _M11 004F                                          _M12 004D  
                                        l245 019A                                          l176 0909  
                                        l274 02F5                                          l283 02D7  
                                        _GIE 005F                                          _RD2 007A  
                                        _RD3 007B                                          _RD4 007C  
                                        _RD5 007D                                          _RF2 1462  
                                        _RD6 007E                                          _RF3 1463  
                                        _RD7 007F                                          _RF4 1464  
                                        _RF5 1465                                          _RF6 1466  
                  __size_of_applianceControl 00F5                                          _isr 0004  
                               __CFG_BORV$LO 0000                                          wreg 0009  
                               __CFG_FOSC$HS 0000                                         S2818 033E  
                               __CFG_LVP$OFF 0000                                         l2210 02D2  
                                       l2144 030C                                         l2170 01A4  
                                       l2402 08CB                                         l2164 039C  
                                       l2172 019D                                         l2340 0148  
                                       l2500 0AA1                                         l2190 01CA  
                                       l2182 01BF                                         l2174 01A9  
                                       l2350 0168                                         l2342 014E  
                                       l2422 090C                                         l2192 01F1  
                                       l2352 016E                                         l2344 0154  
                                       l2600 0C8E                                         l2520 0AF7  
                                       l2504 0AA7                                         l2440 0963  
                                       l2416 08F1                                         l2354 0174  
                                       l2346 015B                                         l2338 0141  
                                       l2362 0187                                         l2188 01C6  
                                       l2356 017A                                         l2348 0162  
                                       l2380 02F0                                         l2612 0CD9  
                                       l2532 0B43                                         l2516 0AF3  
                                       l2452 09AF                                         l2436 095D  
                                       l2198 0201                                         l2358 0180  
                                       l2712 0EBD                                         l2632 0D2E  
                                       l2616 0CDD                                         l2552 0B9B  
                                       l2536 0B4A                                         l2472 0A05  
                                       l2456 09B3                                         l2386 0886  
                                       l2740 0F59                                         l2724 0F08  
                                       l2708 0EB9                                         l2660 0DC8  
                                       l2644 0D79                                         l2628 0D28  
                                       l2580 0C39                                         l2564 0BE7  
                                       l2548 0B96                                         l2484 0A51  
                                       l2468 09FF                                         l2816 018D  
                                       l2760 0FAF                                         l2744 0F5D  
                                       l2728 0F0E                                         l2680 0E1D  
                                       l2664 0DCE                                         l2648 0D7D  
                                       l2584 0C3D                                         l2568 0BED  
                                       l2488 0A55                                         l2772 0FFA  
                                       l2756 0FA8                                         l2692 0E68  
                                       l2676 0E19                                         l2596 0C88  
                                       l2696 0E6E                                         ?_isr 0070  
                                       u4007 0BE0                                         u2425 0313  
                                       u4017 0C02                                         u2435 0318  
                                       u4107 0C81                                         u4027 0C0E  
                                       u4117 0CA2                                         u4037 0C1A  
                                       u4207 0D21                                         u4127 0CAE  
                                       u4047 0C26                                         u4217 0D42  
                                       u4137 0CBA                                         u4057 0C32  
                                       u2555 028A                                         u4307 0DC1  
                                       u4227 0D4E                                         u4147 0CC6  
                                       u4067 0C51                                         u4317 0DE2  
                                       u4237 0D5A                                         u4157 0CD2  
                                       u4077 0C5D                                         u4407 0E61  
                                       u4327 0DEE                                         u4247 0D66  
                                       u4167 0CF1                                         u4087 0C69  
                                       u3607 0956                                         u2655 08EF  
                                       u4417 0E82                                         u4337 0DFA  
                                       u4257 0D72                                         u4177 0CFD  
                                       u4097 0C75                                         u3617 0978  
                                       u2665 0907                                         u4507 0F01  
                                       u4427 0E8E                                         u4347 0E06  
                                       u4267 0D91                                         u4187 0D09  
                                       u3707 09F8                                         u3627 0984  
                                       _PEIE 005E                                         u4517 0F22  
                                       u4437 0E9A                                         u4357 0E12  
                                       u4277 0D9D                                         u4197 0D15  
                                       u3717 0A1A                                         u3637 0990  
                                       u3557 0849                                         u4607 0FA1  
                                       u4527 0F2E                                         u4447 0EA6  
                                       u4367 0E31                                         u4287 0DA9  
                                       u3807 0A9A                                         u3727 0A26  
                                       u3647 099C                                         u3567 0926  
                                       u4617 0FC3                                         u4537 0F3A  
                                       u4457 0EB2                                         u4377 0E3D  
                                       u4297 0DB5                                         u3817 0ABC  
                                       u3737 0A32                                         u3657 09A8  
                                       u3577 0932                                         u4627 0FCF  
                                       u4547 0F46                                         u4467 0ED1  
                                       u4387 0E49                                         u3907 0B3C  
                                       u3827 0AC8                                         u3747 0A3E  
                                       u3667 09C8                                         u3587 093E  
                                       u4637 0FDB                                         u4557 0F52  
                                       u4477 0EDD                                         u4397 0E55  
                                       u3917 0B5F                                         u3837 0AD4  
                                       u3757 0A4A                                         u3677 09D4  
                                       u3597 094A                                         u4647 0FE7  
                                       u4567 0F71                                         u4487 0EE9  
                                       u3927 0B6B                                         u3847 0AE0  
                                       u3767 0A6A                                         u3687 09E0  
                                       u4657 0FF3                                         u4577 0F7D  
                                       u4497 0EF5                                         u3937 0B77  
                                       u3857 0AEC                                         u3777 0A76  
                                       u3697 09EC                                         u4587 0F89  
                                       u3947 0B83                                         u3867 0B0C  
                                       u3787 0A82                                         u4597 0F95  
                                       u3957 0B8F                                         u3877 0B18  
                                       u3797 0A8E                                         u3967 0BB0  
                                       u3887 0B24                                         u3977 0BBC  
                                       u3897 0B30                                         u3987 0BC8  
                                       u3997 0BD4                                         _WPUB 020D  
                                       _WPUD 020F                                         _WPUE 0210  
                                       _WPUG 048D                                 __CFG_WRT$OFF 0000  
                                       _atoi 019B                                         _main 0843  
                                       fsr0h 0005                                         fsr1h 0007  
                                       indf0 0000                                         fsr0l 0004  
                                       indf1 0001                                         fsr1l 0006  
                                       btemp 007E                      _copy_parentalLockBuffer 00B2  
                                       start 0069                                __CFG_IESO$OFF 0000  
                     __size_of_pinINIT_extra 0015                                        ??_isr 0074  
        applianceControl@charParentalControl 0032                                        ?_atoi 0026  
                                      ?_main 0070                                __CFG_WDTE$OFF 0000  
                                      _RC1IF 008D                                        i1l163 004B  
                                      i1l166 0064                                        i1l265 032D  
                             __CFG_FCMEN$OFF 0000                              __end_of_isdigit 039E  
                                      atoi@a 002B                                        atoi@s 002D  
                             __CFG_BOREN$OFF 0000                                        status 0003  
                                      wtemp0 007E                        __end_of_clearAllPorts 038F  
                        _GPIO_pin_Initialize 02A7                               __CFG_MCLRE$OFF 0000  
                            __initialization 006B                      ?_copyReceivedDataBuffer 0070  
                               __end_of_atoi 0206                                 __end_of_main 1000  
                                 _ErrorNames 006B                               __CFG_LPBOR$OFF 0000  
                                     ??_atoi 0028                                       ??_main 0043  
                       ?_GPIO_pin_Initialize 0070                                _pinINIT_extra 036A  
                                     _ANSELA 018C                                       _ANSELB 018D  
                                     _ANSELD 018F                                       _ANSELE 0190  
                                     _ANSELF 040C                                       _ANSELG 040D  
                                     _RC1REG 0199                                       _RC1STA 019D  
                                     i1l1520 0328                                       i1l1684 0025  
                                     u145_25 0040                                       _TX1REG 019A  
                                     _TX1STA 019E                               __CFG_PWRTE$OFF 0000  
             __end_of_copyReceivedDataBuffer 02A7                  __size_of_sendAcknowledgment 001E  
                                     ___wmul 0309                        ??_GPIO_pin_Initialize 0020  
                   _mainReceivedDataPosition 0078                             _applianceControl 00A6  
                               __pdataCOMMON 007A                                    ??_isdigit 0020  
                             ?_pinINIT_extra 0070                      __end_of__initialization 00A2  
                             __pcstackCOMMON 0070                                 __pidataBANK0 039E  
                               __pidataBANK1 0240                                 __pidataBANK2 0206  
                                 __pbssBANK0 004D                              __CFG_VCAPEN$OFF 0000  
                         __size_of_errorsISR 0019                                   __pmaintext 0843  
                                    ?___wmul 0020                                   __pintentry 0004  
                 sendAcknowledgment@Tx_count 0021                              ??_pinINIT_extra 0020  
                                    _SP1BRGH 019C                                      _SP1BRGL 019B  
applianceControl@currentStateBufferPositions 003F             applianceControl@chDimmerSpeedLSB 0031  
           applianceControl@chDimmerSpeedMSB 0030                              __size_of___wmul 001C  
                            __CFG_STVREN$OFF 0000                                   _errorsMain 02EC  
                                    __ptext1 02EC                                      __ptext2 0278  
                                    __ptext3 00A6                                      __ptext4 02CE  
                                    __ptext5 019B                                      __ptext6 038F  
                                    __ptext7 0309                                      __ptext8 03B3  
                                    __ptext9 0354                                      _isdigit 038F  
                               __size_of_isr 0065                            __end_of_errorsISR 033E  
       sendAcknowledgment@currentStateBuffer 0023                                      main@man 004B  
                                    clrloop0 03AE                         end_of_initialization 00A2  
                                    init_ram 03A7                                      initloop 03A8  
                          _EUSART_Initialize 0354                            _levelofDimmer_LSB 007A  
                          _levelofDimmer_MSB 007B                     __end_of_applianceControl 019B  
         applianceControl@integerSwitchState 0041                           ?_EUSART_Initialize 0070  
                        ??_EUSART_Initialize 0020                                    _PORTAbits 000C  
                                  _PORTBbits 000D                                    _PORTCbits 000E  
                                  _PORTFbits 028C                                    _TRISAbits 008C  
                     __size_of_clearAllPorts 0010                                    _TRISBbits 008D  
                                  _TRISCbits 008E                                    _TRISDbits 008F  
                                  _TRISFbits 030C                    __end_of_EUSART_Initialize 036A  
   applianceControl@switchNumberStringBuffer 0039                   __end_of_sendAcknowledgment 02EC  
                __end_of_GPIO_pin_Initialize 02CE                               __end_of___wmul 0325  
                     _mainReceivedDataBuffer 00A0                                __pidataCOMMON 03B6  
                                ?_errorsMain 0070                          start_initialization 006B  
                                __end_of_isr 0069                        applianceControl@F3835 0069  
                      applianceControl@F3837 0067                                _clearAllPorts 037F  
    copyReceivedDataBuffer@dataBufferCounter 0021                                     ??___wmul 0024  
                                __pdataBANK0 0067                                  __pdataBANK1 00A0  
                                __pdataBANK2 0120                             _mainDataReceived 0065  
                                __pbssCOMMON 0076                                    ___latbits 0002  
                              __pcstackBANK0 0020                            errorsISR@Tx_count 0071  
                   ??_copyReceivedDataBuffer 0020                   __size_of_EUSART_Initialize 0016  
                         errorsMain@Tx_count 0021                          __size_of_errorsMain 001D  
                             ?_clearAllPorts 0070                              errorsISR@errNum 0073  
                           errorsMain@errNum 0023                                    __pswtext1 033E  
                                   _BAUD1CON 019F                        __end_of_pinINIT_extra 037F  
                                   ?_isdigit 0070          applianceControl@charFinalFrameState 0033  
                                  _errorsISR 0325      applianceControl@dimmerSpeedStringBuffer 003B  
                             ___wmul@product 0024                                    clear_ram0 03AD  
                                   _PIE1bits 0091                            ?_applianceControl 002E  
                         ??_applianceControl 0034                            ___wmul@multiplier 0020  
              applianceControl@charSwitchLSB 002E                applianceControl@charSwitchMSB 0038  
                                 ?_errorsISR 0070              __size_of_copyReceivedDataBuffer 002F  
                            ??_clearAllPorts 0020             _start_PWM_Generation_in_ISR_FLAG 0076  
                          _allPeripheralInit 03B3                                 ??_errorsMain 0020  
                         _sendAcknowledgment 02CE                                  _isdigit$677 0020  
                         ?_allPeripheralInit 0070                             __size_of_isdigit 000F  
                        ?_sendAcknowledgment 0070                                     __ptext10 02A7  
                                   __ptext11 036A                                     __ptext12 037F  
                                   __ptext14 0325                          ??_allPeripheralInit 0020  
            applianceControl@charSwitchSTATE 002F                        main@dataBufferCounter 0049  
                              __size_of_atoi 006B                                __size_of_main 07BD  
                         __end_of_errorsMain 0309                           _currentStateBuffer 0120  
                                 _RC1STAbits 019D                         ??_sendAcknowledgment 0020  
                  __end_of_allPeripheralInit 03B6                                     int$flags 007E  
                                   atoi@sign 002A                       _copyReceivedDataBuffer 0278  
                     _tempReceivedDataBuffer 00CE                 __size_of_GPIO_pin_Initialize 0027  
                                   isdigit@c 0021                                  ??_errorsISR 0070  
                                   intlevel1 0000                            __CFG_CLKOUTEN$OFF 0000  
        applianceControl@integerSwitchNumber 003D                           _parentalLockBuffer 00C0  
                                 _TX1STAbits 019E  
